
a.out:     file format elf64-x86-64


Disassembly of section .init:

0000000000404000 <_init>:
  404000:	f3 0f 1e fa          	endbr64 
  404004:	48 83 ec 08          	sub    rsp,0x8
  404008:	48 8b 05 71 7f 03 00 	mov    rax,QWORD PTR [rip+0x37f71]        # 43bf80 <__gmon_start__>
  40400f:	48 85 c0             	test   rax,rax
  404012:	74 02                	je     404016 <_init+0x16>
  404014:	ff d0                	call   rax
  404016:	48 83 c4 08          	add    rsp,0x8
  40401a:	c3                   	ret    

Disassembly of section .plt:

0000000000404020 <.plt>:
  404020:	ff 35 e2 7f 03 00    	push   QWORD PTR [rip+0x37fe2]        # 43c008 <_GLOBAL_OFFSET_TABLE_+0x8>
  404026:	ff 25 e4 7f 03 00    	jmp    QWORD PTR [rip+0x37fe4]        # 43c010 <_GLOBAL_OFFSET_TABLE_+0x10>
  40402c:	0f 1f 40 00          	nop    DWORD PTR [rax+0x0]

0000000000404030 <pthread_getattr_np@plt>:
  404030:	ff 25 e2 7f 03 00    	jmp    QWORD PTR [rip+0x37fe2]        # 43c018 <pthread_getattr_np@GLIBC_2.2.5>
  404036:	68 00 00 00 00       	push   0x0
  40403b:	e9 e0 ff ff ff       	jmp    404020 <.plt>

0000000000404040 <snprintf@plt>:
  404040:	ff 25 da 7f 03 00    	jmp    QWORD PTR [rip+0x37fda]        # 43c020 <snprintf@GLIBC_2.2.5>
  404046:	68 01 00 00 00       	push   0x1
  40404b:	e9 d0 ff ff ff       	jmp    404020 <.plt>

0000000000404050 <__cxa_begin_catch@plt>:
  404050:	ff 25 d2 7f 03 00    	jmp    QWORD PTR [rip+0x37fd2]        # 43c028 <__cxa_begin_catch>
  404056:	68 02 00 00 00       	push   0x2
  40405b:	e9 c0 ff ff ff       	jmp    404020 <.plt>

0000000000404060 <getauxval@plt>:
  404060:	ff 25 ca 7f 03 00    	jmp    QWORD PTR [rip+0x37fca]        # 43c030 <getauxval@GLIBC_2.16>
  404066:	68 03 00 00 00       	push   0x3
  40406b:	e9 b0 ff ff ff       	jmp    404020 <.plt>

0000000000404070 <syslog@plt>:
  404070:	ff 25 c2 7f 03 00    	jmp    QWORD PTR [rip+0x37fc2]        # 43c038 <syslog@GLIBC_2.2.5>
  404076:	68 04 00 00 00       	push   0x4
  40407b:	e9 a0 ff ff ff       	jmp    404020 <.plt>

0000000000404080 <abort@plt>:
  404080:	ff 25 ba 7f 03 00    	jmp    QWORD PTR [rip+0x37fba]        # 43c040 <abort@GLIBC_2.2.5>
  404086:	68 05 00 00 00       	push   0x5
  40408b:	e9 90 ff ff ff       	jmp    404020 <.plt>

0000000000404090 <setrlimit@plt>:
  404090:	ff 25 b2 7f 03 00    	jmp    QWORD PTR [rip+0x37fb2]        # 43c048 <setrlimit@GLIBC_2.2.5>
  404096:	68 06 00 00 00       	push   0x6
  40409b:	e9 80 ff ff ff       	jmp    404020 <.plt>

00000000004040a0 <clock_gettime@plt>:
  4040a0:	ff 25 aa 7f 03 00    	jmp    QWORD PTR [rip+0x37faa]        # 43c050 <clock_gettime@GLIBC_2.17>
  4040a6:	68 07 00 00 00       	push   0x7
  4040ab:	e9 70 ff ff ff       	jmp    404020 <.plt>

00000000004040b0 <getrusage@plt>:
  4040b0:	ff 25 a2 7f 03 00    	jmp    QWORD PTR [rip+0x37fa2]        # 43c058 <getrusage@GLIBC_2.2.5>
  4040b6:	68 08 00 00 00       	push   0x8
  4040bb:	e9 60 ff ff ff       	jmp    404020 <.plt>

00000000004040c0 <isatty@plt>:
  4040c0:	ff 25 9a 7f 03 00    	jmp    QWORD PTR [rip+0x37f9a]        # 43c060 <isatty@GLIBC_2.2.5>
  4040c6:	68 09 00 00 00       	push   0x9
  4040cb:	e9 50 ff ff ff       	jmp    404020 <.plt>

00000000004040d0 <dlvsym@plt>:
  4040d0:	ff 25 92 7f 03 00    	jmp    QWORD PTR [rip+0x37f92]        # 43c068 <dlvsym@GLIBC_2.2.5>
  4040d6:	68 0a 00 00 00       	push   0xa
  4040db:	e9 40 ff ff ff       	jmp    404020 <.plt>

00000000004040e0 <malloc@plt>:
  4040e0:	ff 25 8a 7f 03 00    	jmp    QWORD PTR [rip+0x37f8a]        # 43c070 <malloc@GLIBC_2.2.5>
  4040e6:	68 0b 00 00 00       	push   0xb
  4040eb:	e9 30 ff ff ff       	jmp    404020 <.plt>

00000000004040f0 <fopen@plt>:
  4040f0:	ff 25 82 7f 03 00    	jmp    QWORD PTR [rip+0x37f82]        # 43c078 <fopen@GLIBC_2.2.5>
  4040f6:	68 0c 00 00 00       	push   0xc
  4040fb:	e9 20 ff ff ff       	jmp    404020 <.plt>

0000000000404100 <sched_yield@plt>:
  404100:	ff 25 7a 7f 03 00    	jmp    QWORD PTR [rip+0x37f7a]        # 43c080 <sched_yield@GLIBC_2.2.5>
  404106:	68 0d 00 00 00       	push   0xd
  40410b:	e9 10 ff ff ff       	jmp    404020 <.plt>

0000000000404110 <_ZNSt3__18ios_base5clearEj@plt>:
  404110:	ff 25 72 7f 03 00    	jmp    QWORD PTR [rip+0x37f72]        # 43c088 <_ZNSt3__18ios_base5clearEj>
  404116:	68 0e 00 00 00       	push   0xe
  40411b:	e9 00 ff ff ff       	jmp    404020 <.plt>

0000000000404120 <__cxa_atexit@plt>:
  404120:	ff 25 6a 7f 03 00    	jmp    QWORD PTR [rip+0x37f6a]        # 43c090 <__cxa_atexit@GLIBC_2.2.5>
  404126:	68 0f 00 00 00       	push   0xf
  40412b:	e9 f0 fe ff ff       	jmp    404020 <.plt>

0000000000404130 <sysconf@plt>:
  404130:	ff 25 62 7f 03 00    	jmp    QWORD PTR [rip+0x37f62]        # 43c098 <sysconf@GLIBC_2.2.5>
  404136:	68 10 00 00 00       	push   0x10
  40413b:	e9 e0 fe ff ff       	jmp    404020 <.plt>

0000000000404140 <pthread_attr_destroy@plt>:
  404140:	ff 25 5a 7f 03 00    	jmp    QWORD PTR [rip+0x37f5a]        # 43c0a0 <pthread_attr_destroy@GLIBC_2.2.5>
  404146:	68 11 00 00 00       	push   0x11
  40414b:	e9 d0 fe ff ff       	jmp    404020 <.plt>

0000000000404150 <strlen@plt>:
  404150:	ff 25 52 7f 03 00    	jmp    QWORD PTR [rip+0x37f52]        # 43c0a8 <strlen@GLIBC_2.2.5>
  404156:	68 12 00 00 00       	push   0x12
  40415b:	e9 c0 fe ff ff       	jmp    404020 <.plt>

0000000000404160 <malloc_usable_size@plt>:
  404160:	ff 25 4a 7f 03 00    	jmp    QWORD PTR [rip+0x37f4a]        # 43c0b0 <malloc_usable_size@GLIBC_2.2.5>
  404166:	68 13 00 00 00       	push   0x13
  40416b:	e9 b0 fe ff ff       	jmp    404020 <.plt>

0000000000404170 <__sanitizer_print_memory_profile@plt>:
  404170:	ff 25 42 7f 03 00    	jmp    QWORD PTR [rip+0x37f42]        # 43c0b8 <__sanitizer_print_memory_profile>
  404176:	68 14 00 00 00       	push   0x14
  40417b:	e9 a0 fe ff ff       	jmp    404020 <.plt>

0000000000404180 <__gxx_personality_v0@plt>:
  404180:	ff 25 3a 7f 03 00    	jmp    QWORD PTR [rip+0x37f3a]        # 43c0c0 <__gxx_personality_v0>
  404186:	68 15 00 00 00       	push   0x15
  40418b:	e9 90 fe ff ff       	jmp    404020 <.plt>

0000000000404190 <dlerror@plt>:
  404190:	ff 25 32 7f 03 00    	jmp    QWORD PTR [rip+0x37f32]        # 43c0c8 <dlerror@GLIBC_2.2.5>
  404196:	68 16 00 00 00       	push   0x16
  40419b:	e9 80 fe ff ff       	jmp    404020 <.plt>

00000000004041a0 <_Unwind_GetIP@plt>:
  4041a0:	ff 25 2a 7f 03 00    	jmp    QWORD PTR [rip+0x37f2a]        # 43c0d0 <_Unwind_GetIP@GCC_3.0>
  4041a6:	68 17 00 00 00       	push   0x17
  4041ab:	e9 70 fe ff ff       	jmp    404020 <.plt>

00000000004041b0 <_Unwind_Backtrace@plt>:
  4041b0:	ff 25 22 7f 03 00    	jmp    QWORD PTR [rip+0x37f22]        # 43c0d8 <_Unwind_Backtrace@GCC_3.3>
  4041b6:	68 18 00 00 00       	push   0x18
  4041bb:	e9 60 fe ff ff       	jmp    404020 <.plt>

00000000004041c0 <pipe@plt>:
  4041c0:	ff 25 1a 7f 03 00    	jmp    QWORD PTR [rip+0x37f1a]        # 43c0e0 <pipe@GLIBC_2.2.5>
  4041c6:	68 19 00 00 00       	push   0x19
  4041cb:	e9 50 fe ff ff       	jmp    404020 <.plt>

00000000004041d0 <sleep@plt>:
  4041d0:	ff 25 12 7f 03 00    	jmp    QWORD PTR [rip+0x37f12]        # 43c0e8 <sleep@GLIBC_2.2.5>
  4041d6:	68 1a 00 00 00       	push   0x1a
  4041db:	e9 40 fe ff ff       	jmp    404020 <.plt>

00000000004041e0 <pthread_attr_getstack@plt>:
  4041e0:	ff 25 0a 7f 03 00    	jmp    QWORD PTR [rip+0x37f0a]        # 43c0f0 <pthread_attr_getstack@GLIBC_2.2.5>
  4041e6:	68 1b 00 00 00       	push   0x1b
  4041eb:	e9 30 fe ff ff       	jmp    404020 <.plt>

00000000004041f0 <pthread_self@plt>:
  4041f0:	ff 25 02 7f 03 00    	jmp    QWORD PTR [rip+0x37f02]        # 43c0f8 <pthread_self@GLIBC_2.2.5>
  4041f6:	68 1c 00 00 00       	push   0x1c
  4041fb:	e9 20 fe ff ff       	jmp    404020 <.plt>

0000000000404200 <_ZNSt3__112basic_stringIcNS_11char_traitsIcEENS_9allocatorIcEEE6__initEmc@plt>:
  404200:	ff 25 fa 7e 03 00    	jmp    QWORD PTR [rip+0x37efa]        # 43c100 <_ZNSt3__112basic_stringIcNS_11char_traitsIcEENS_9allocatorIcEEE6__initEmc>
  404206:	68 1d 00 00 00       	push   0x1d
  40420b:	e9 10 fe ff ff       	jmp    404020 <.plt>

0000000000404210 <usleep@plt>:
  404210:	ff 25 f2 7e 03 00    	jmp    QWORD PTR [rip+0x37ef2]        # 43c108 <usleep@GLIBC_2.2.5>
  404216:	68 1e 00 00 00       	push   0x1e
  40421b:	e9 00 fe ff ff       	jmp    404020 <.plt>

0000000000404220 <pthread_attr_setstacksize@plt>:
  404220:	ff 25 ea 7e 03 00    	jmp    QWORD PTR [rip+0x37eea]        # 43c110 <pthread_attr_setstacksize@GLIBC_2.2.5>
  404226:	68 1f 00 00 00       	push   0x1f
  40422b:	e9 f0 fd ff ff       	jmp    404020 <.plt>

0000000000404230 <strcat@plt>:
  404230:	ff 25 e2 7e 03 00    	jmp    QWORD PTR [rip+0x37ee2]        # 43c118 <strcat@GLIBC_2.2.5>
  404236:	68 20 00 00 00       	push   0x20
  40423b:	e9 e0 fd ff ff       	jmp    404020 <.plt>

0000000000404240 <sched_getaffinity@plt>:
  404240:	ff 25 da 7e 03 00    	jmp    QWORD PTR [rip+0x37eda]        # 43c120 <sched_getaffinity@GLIBC_2.3.4>
  404246:	68 21 00 00 00       	push   0x21
  40424b:	e9 d0 fd ff ff       	jmp    404020 <.plt>

0000000000404250 <_ZNSt3__113basic_ostreamIcNS_11char_traitsIcEEE6sentryC1ERS3_@plt>:
  404250:	ff 25 d2 7e 03 00    	jmp    QWORD PTR [rip+0x37ed2]        # 43c128 <_ZNSt3__113basic_ostreamIcNS_11char_traitsIcEEE6sentryC1ERS3_>
  404256:	68 22 00 00 00       	push   0x22
  40425b:	e9 c0 fd ff ff       	jmp    404020 <.plt>

0000000000404260 <__cxa_end_catch@plt>:
  404260:	ff 25 ca 7e 03 00    	jmp    QWORD PTR [rip+0x37eca]        # 43c130 <__cxa_end_catch>
  404266:	68 23 00 00 00       	push   0x23
  40426b:	e9 b0 fd ff ff       	jmp    404020 <.plt>

0000000000404270 <_ZN11__sanitizer17real_pthread_joinEPvPS0_@plt>:
  404270:	ff 25 c2 7e 03 00    	jmp    QWORD PTR [rip+0x37ec2]        # 43c138 <_ZN11__sanitizer17real_pthread_joinEPvPS0_>
  404276:	68 24 00 00 00       	push   0x24
  40427b:	e9 a0 fd ff ff       	jmp    404020 <.plt>

0000000000404280 <getenv@plt>:
  404280:	ff 25 ba 7e 03 00    	jmp    QWORD PTR [rip+0x37eba]        # 43c140 <getenv@GLIBC_2.2.5>
  404286:	68 25 00 00 00       	push   0x25
  40428b:	e9 90 fd ff ff       	jmp    404020 <.plt>

0000000000404290 <dl_iterate_phdr@plt>:
  404290:	ff 25 b2 7e 03 00    	jmp    QWORD PTR [rip+0x37eb2]        # 43c148 <dl_iterate_phdr@GLIBC_2.2.5>
  404296:	68 26 00 00 00       	push   0x26
  40429b:	e9 80 fd ff ff       	jmp    404020 <.plt>

00000000004042a0 <__errno_location@plt>:
  4042a0:	ff 25 aa 7e 03 00    	jmp    QWORD PTR [rip+0x37eaa]        # 43c150 <__errno_location@GLIBC_2.2.5>
  4042a6:	68 27 00 00 00       	push   0x27
  4042ab:	e9 70 fd ff ff       	jmp    404020 <.plt>

00000000004042b0 <_ZNKSt3__18ios_base6getlocEv@plt>:
  4042b0:	ff 25 a2 7e 03 00    	jmp    QWORD PTR [rip+0x37ea2]        # 43c158 <_ZNKSt3__18ios_base6getlocEv>
  4042b6:	68 28 00 00 00       	push   0x28
  4042bb:	e9 60 fd ff ff       	jmp    404020 <.plt>

00000000004042c0 <confstr@plt>:
  4042c0:	ff 25 9a 7e 03 00    	jmp    QWORD PTR [rip+0x37e9a]        # 43c160 <confstr@GLIBC_2.2.5>
  4042c6:	68 29 00 00 00       	push   0x29
  4042cb:	e9 50 fd ff ff       	jmp    404020 <.plt>

00000000004042d0 <__dynamic_cast@plt>:
  4042d0:	ff 25 92 7e 03 00    	jmp    QWORD PTR [rip+0x37e92]        # 43c168 <__dynamic_cast>
  4042d6:	68 2a 00 00 00       	push   0x2a
  4042db:	e9 40 fd ff ff       	jmp    404020 <.plt>

00000000004042e0 <strcpy@plt>:
  4042e0:	ff 25 8a 7e 03 00    	jmp    QWORD PTR [rip+0x37e8a]        # 43c170 <strcpy@GLIBC_2.2.5>
  4042e6:	68 2b 00 00 00       	push   0x2b
  4042eb:	e9 30 fd ff ff       	jmp    404020 <.plt>

00000000004042f0 <_ZNSt3__113basic_ostreamIcNS_11char_traitsIcEEE6sentryD1Ev@plt>:
  4042f0:	ff 25 82 7e 03 00    	jmp    QWORD PTR [rip+0x37e82]        # 43c178 <_ZNSt3__113basic_ostreamIcNS_11char_traitsIcEEE6sentryD1Ev>
  4042f6:	68 2c 00 00 00       	push   0x2c
  4042fb:	e9 20 fd ff ff       	jmp    404020 <.plt>

0000000000404300 <getuid@plt>:
  404300:	ff 25 7a 7e 03 00    	jmp    QWORD PTR [rip+0x37e7a]        # 43c180 <getuid@GLIBC_2.2.5>
  404306:	68 2d 00 00 00       	push   0x2d
  40430b:	e9 10 fd ff ff       	jmp    404020 <.plt>

0000000000404310 <_ZNKSt3__16locale9use_facetERNS0_2idE@plt>:
  404310:	ff 25 72 7e 03 00    	jmp    QWORD PTR [rip+0x37e72]        # 43c188 <_ZNKSt3__16locale9use_facetERNS0_2idE>
  404316:	68 2e 00 00 00       	push   0x2e
  40431b:	e9 00 fd ff ff       	jmp    404020 <.plt>

0000000000404320 <fclose@plt>:
  404320:	ff 25 6a 7e 03 00    	jmp    QWORD PTR [rip+0x37e6a]        # 43c190 <fclose@GLIBC_2.2.5>
  404326:	68 2f 00 00 00       	push   0x2f
  40432b:	e9 f0 fc ff ff       	jmp    404020 <.plt>

0000000000404330 <getrlimit@plt>:
  404330:	ff 25 62 7e 03 00    	jmp    QWORD PTR [rip+0x37e62]        # 43c198 <getrlimit@GLIBC_2.2.5>
  404336:	68 30 00 00 00       	push   0x30
  40433b:	e9 e0 fc ff ff       	jmp    404020 <.plt>

0000000000404340 <pthread_attr_init@plt>:
  404340:	ff 25 5a 7e 03 00    	jmp    QWORD PTR [rip+0x37e5a]        # 43c1a0 <pthread_attr_init@GLIBC_2.2.5>
  404346:	68 31 00 00 00       	push   0x31
  40434b:	e9 d0 fc ff ff       	jmp    404020 <.plt>

0000000000404350 <__sched_cpucount@plt>:
  404350:	ff 25 52 7e 03 00    	jmp    QWORD PTR [rip+0x37e52]        # 43c1a8 <__sched_cpucount@GLIBC_2.6>
  404356:	68 32 00 00 00       	push   0x32
  40435b:	e9 c0 fc ff ff       	jmp    404020 <.plt>

0000000000404360 <_ZNSt3__18ios_base33__set_badbit_and_consider_rethrowEv@plt>:
  404360:	ff 25 4a 7e 03 00    	jmp    QWORD PTR [rip+0x37e4a]        # 43c1b0 <_ZNSt3__18ios_base33__set_badbit_and_consider_rethrowEv>
  404366:	68 33 00 00 00       	push   0x33
  40436b:	e9 b0 fc ff ff       	jmp    404020 <.plt>

0000000000404370 <dlsym@plt>:
  404370:	ff 25 42 7e 03 00    	jmp    QWORD PTR [rip+0x37e42]        # 43c1b8 <dlsym@GLIBC_2.2.5>
  404376:	68 34 00 00 00       	push   0x34
  40437b:	e9 a0 fc ff ff       	jmp    404020 <.plt>

0000000000404380 <_ZNSt3__16localeD1Ev@plt>:
  404380:	ff 25 3a 7e 03 00    	jmp    QWORD PTR [rip+0x37e3a]        # 43c1c0 <_ZNSt3__16localeD1Ev>
  404386:	68 35 00 00 00       	push   0x35
  40438b:	e9 90 fc ff ff       	jmp    404020 <.plt>

0000000000404390 <_ZNSt3__112basic_stringIcNS_11char_traitsIcEENS_9allocatorIcEEED1Ev@plt>:
  404390:	ff 25 32 7e 03 00    	jmp    QWORD PTR [rip+0x37e32]        # 43c1c8 <_ZNSt3__112basic_stringIcNS_11char_traitsIcEENS_9allocatorIcEEED1Ev>
  404396:	68 36 00 00 00       	push   0x36
  40439b:	e9 80 fc ff ff       	jmp    404020 <.plt>

00000000004043a0 <fprintf@plt>:
  4043a0:	ff 25 2a 7e 03 00    	jmp    QWORD PTR [rip+0x37e2a]        # 43c1d0 <fprintf@GLIBC_2.2.5>
  4043a6:	68 37 00 00 00       	push   0x37
  4043ab:	e9 70 fc ff ff       	jmp    404020 <.plt>

00000000004043b0 <_Unwind_Resume@plt>:
  4043b0:	ff 25 22 7e 03 00    	jmp    QWORD PTR [rip+0x37e22]        # 43c1d8 <_Unwind_Resume@GCC_3.0>
  4043b6:	68 38 00 00 00       	push   0x38
  4043bb:	e9 60 fc ff ff       	jmp    404020 <.plt>

00000000004043c0 <sigaltstack@plt>:
  4043c0:	ff 25 1a 7e 03 00    	jmp    QWORD PTR [rip+0x37e1a]        # 43c1e0 <sigaltstack@GLIBC_2.2.5>
  4043c6:	68 39 00 00 00       	push   0x39
  4043cb:	e9 50 fc ff ff       	jmp    404020 <.plt>

00000000004043d0 <memcpy@plt>:
  4043d0:	ff 25 12 7e 03 00    	jmp    QWORD PTR [rip+0x37e12]        # 43c1e8 <memcpy@GLIBC_2.14>
  4043d6:	68 3a 00 00 00       	push   0x3a
  4043db:	e9 40 fc ff ff       	jmp    404020 <.plt>

00000000004043e0 <_ZSt9terminatev@plt>:
  4043e0:	ff 25 0a 7e 03 00    	jmp    QWORD PTR [rip+0x37e0a]        # 43c1f0 <_ZSt9terminatev>
  4043e6:	68 3b 00 00 00       	push   0x3b
  4043eb:	e9 30 fc ff ff       	jmp    404020 <.plt>

00000000004043f0 <fflush@plt>:
  4043f0:	ff 25 02 7e 03 00    	jmp    QWORD PTR [rip+0x37e02]        # 43c1f8 <fflush@GLIBC_2.2.5>
  4043f6:	68 3c 00 00 00       	push   0x3c
  4043fb:	e9 20 fc ff ff       	jmp    404020 <.plt>

Disassembly of section .plt.got:

0000000000404400 <__sanitizer_symbolize_demangle@plt>:
  404400:	ff 25 6a 7b 03 00    	jmp    QWORD PTR [rip+0x37b6a]        # 43bf70 <__sanitizer_symbolize_demangle>
  404406:	66 90                	xchg   ax,ax

0000000000404408 <__sanitizer_symbolize_code@plt>:
  404408:	ff 25 9a 7b 03 00    	jmp    QWORD PTR [rip+0x37b9a]        # 43bfa8 <__sanitizer_symbolize_code>
  40440e:	66 90                	xchg   ax,ax

0000000000404410 <real_clock_gettime@plt>:
  404410:	ff 25 9a 7b 03 00    	jmp    QWORD PTR [rip+0x37b9a]        # 43bfb0 <real_clock_gettime>
  404416:	66 90                	xchg   ax,ax

0000000000404418 <__sanitizer_symbolize_flush@plt>:
  404418:	ff 25 9a 7b 03 00    	jmp    QWORD PTR [rip+0x37b9a]        # 43bfb8 <__sanitizer_symbolize_flush>
  40441e:	66 90                	xchg   ax,ax

0000000000404420 <__cxa_demangle@plt>:
  404420:	ff 25 9a 7b 03 00    	jmp    QWORD PTR [rip+0x37b9a]        # 43bfc0 <__cxa_demangle>
  404426:	66 90                	xchg   ax,ax

0000000000404428 <real_pthread_attr_getstack@plt>:
  404428:	ff 25 a2 7b 03 00    	jmp    QWORD PTR [rip+0x37ba2]        # 43bfd0 <real_pthread_attr_getstack>
  40442e:	66 90                	xchg   ax,ax

0000000000404430 <__sanitizer_symbolize_data@plt>:
  404430:	ff 25 ba 7b 03 00    	jmp    QWORD PTR [rip+0x37bba]        # 43bff0 <__sanitizer_symbolize_data>
  404436:	66 90                	xchg   ax,ax

0000000000404438 <_ZN11__sanitizer19real_pthread_createEPvS0_PFS0_S0_ES0_@plt>:
  404438:	ff 25 ba 7b 03 00    	jmp    QWORD PTR [rip+0x37bba]        # 43bff8 <_ZN11__sanitizer19real_pthread_createEPvS0_PFS0_S0_ES0_>
  40443e:	66 90                	xchg   ax,ax

Disassembly of section .text:

0000000000404440 <_GLOBAL__sub_I_ubsan_init_standalone.cpp>:
  404440:	50                   	push   rax
  404441:	e8 fa bf 01 00       	call   420440 <_ZN7__ubsan16InitAsStandaloneEv>
  404446:	58                   	pop    rax
  404447:	e9 94 13 02 00       	jmp    4257e0 <_ZN7__ubsan23InitializeDeadlySignalsEv>
  40444c:	0f 1f 40 00          	nop    DWORD PTR [rax+0x0]

0000000000404450 <_start>:
  404450:	f3 0f 1e fa          	endbr64 
  404454:	31 ed                	xor    ebp,ebp
  404456:	49 89 d1             	mov    r9,rdx
  404459:	5e                   	pop    rsi
  40445a:	48 89 e2             	mov    rdx,rsp
  40445d:	48 83 e4 f0          	and    rsp,0xfffffffffffffff0
  404461:	50                   	push   rax
  404462:	54                   	push   rsp
  404463:	49 c7 c0 10 79 42 00 	mov    r8,0x427910
  40446a:	48 c7 c1 a0 78 42 00 	mov    rcx,0x4278a0
  404471:	48 c7 c7 70 6e 42 00 	mov    rdi,0x426e70
  404478:	ff 15 1a 7b 03 00    	call   QWORD PTR [rip+0x37b1a]        # 43bf98 <__libc_start_main@GLIBC_2.2.5>
  40447e:	f4                   	hlt    
  40447f:	90                   	nop

0000000000404480 <_dl_relocate_static_pie>:
  404480:	f3 0f 1e fa          	endbr64 
  404484:	c3                   	ret    
  404485:	66 2e 0f 1f 84 00 00 	nop    WORD PTR cs:[rax+rax*1+0x0]
  40448c:	00 00 00 
  40448f:	90                   	nop

0000000000404490 <deregister_tm_clones>:
  404490:	b8 80 ec 43 00       	mov    eax,0x43ec80
  404495:	48 3d 80 ec 43 00    	cmp    rax,0x43ec80
  40449b:	74 13                	je     4044b0 <deregister_tm_clones+0x20>
  40449d:	b8 00 00 00 00       	mov    eax,0x0
  4044a2:	48 85 c0             	test   rax,rax
  4044a5:	74 09                	je     4044b0 <deregister_tm_clones+0x20>
  4044a7:	bf 80 ec 43 00       	mov    edi,0x43ec80
  4044ac:	ff e0                	jmp    rax
  4044ae:	66 90                	xchg   ax,ax
  4044b0:	c3                   	ret    
  4044b1:	66 66 2e 0f 1f 84 00 	data16 nop WORD PTR cs:[rax+rax*1+0x0]
  4044b8:	00 00 00 00 
  4044bc:	0f 1f 40 00          	nop    DWORD PTR [rax+0x0]

00000000004044c0 <register_tm_clones>:
  4044c0:	be 80 ec 43 00       	mov    esi,0x43ec80
  4044c5:	48 81 ee 80 ec 43 00 	sub    rsi,0x43ec80
  4044cc:	48 89 f0             	mov    rax,rsi
  4044cf:	48 c1 ee 3f          	shr    rsi,0x3f
  4044d3:	48 c1 f8 03          	sar    rax,0x3
  4044d7:	48 01 c6             	add    rsi,rax
  4044da:	48 d1 fe             	sar    rsi,1
  4044dd:	74 11                	je     4044f0 <register_tm_clones+0x30>
  4044df:	b8 00 00 00 00       	mov    eax,0x0
  4044e4:	48 85 c0             	test   rax,rax
  4044e7:	74 07                	je     4044f0 <register_tm_clones+0x30>
  4044e9:	bf 80 ec 43 00       	mov    edi,0x43ec80
  4044ee:	ff e0                	jmp    rax
  4044f0:	c3                   	ret    
  4044f1:	66 66 2e 0f 1f 84 00 	data16 nop WORD PTR cs:[rax+rax*1+0x0]
  4044f8:	00 00 00 00 
  4044fc:	0f 1f 40 00          	nop    DWORD PTR [rax+0x0]

0000000000404500 <__do_global_dtors_aux>:
  404500:	f3 0f 1e fa          	endbr64 
  404504:	80 3d 25 a8 03 00 00 	cmp    BYTE PTR [rip+0x3a825],0x0        # 43ed30 <completed.8060>
  40450b:	75 13                	jne    404520 <__do_global_dtors_aux+0x20>
  40450d:	55                   	push   rbp
  40450e:	48 89 e5             	mov    rbp,rsp
  404511:	e8 7a ff ff ff       	call   404490 <deregister_tm_clones>
  404516:	c6 05 13 a8 03 00 01 	mov    BYTE PTR [rip+0x3a813],0x1        # 43ed30 <completed.8060>
  40451d:	5d                   	pop    rbp
  40451e:	c3                   	ret    
  40451f:	90                   	nop
  404520:	c3                   	ret    
  404521:	66 66 2e 0f 1f 84 00 	data16 nop WORD PTR cs:[rax+rax*1+0x0]
  404528:	00 00 00 00 
  40452c:	0f 1f 40 00          	nop    DWORD PTR [rax+0x0]

0000000000404530 <frame_dummy>:
  404530:	f3 0f 1e fa          	endbr64 
  404534:	eb 8a                	jmp    4044c0 <register_tm_clones>
  404536:	66 2e 0f 1f 84 00 00 	nop    WORD PTR cs:[rax+rax*1+0x0]
  40453d:	00 00 00 

0000000000404540 <_Z6IncValii>:
  404540:	48 63 c7             	movsxd rax,edi
  404543:	48 8d 0d f6 a7 03 00 	lea    rcx,[rip+0x3a7f6]        # 43ed40 <count_index>
  40454a:	48 63 d6             	movsxd rdx,esi
  40454d:	48 01 14 c1          	add    QWORD PTR [rcx+rax*8],rdx
  404551:	c3                   	ret    
  404552:	66 2e 0f 1f 84 00 00 	nop    WORD PTR cs:[rax+rax*1+0x0]
  404559:	00 00 00 
  40455c:	0f 1f 40 00          	nop    DWORD PTR [rax+0x0]

0000000000404560 <_Z6getVali>:
  404560:	48 63 c7             	movsxd rax,edi
  404563:	48 8d 0d d6 a7 03 00 	lea    rcx,[rip+0x3a7d6]        # 43ed40 <count_index>
  40456a:	48 8b 04 c1          	mov    rax,QWORD PTR [rcx+rax*8]
  40456e:	c3                   	ret    
  40456f:	90                   	nop

0000000000404570 <_Z15printInfotoFilePcS_>:
  404570:	41 57                	push   r15
  404572:	41 56                	push   r14
  404574:	53                   	push   rbx
  404575:	48 81 ec f0 03 00 00 	sub    rsp,0x3f0
  40457c:	49 89 f7             	mov    r15,rsi
  40457f:	49 89 fe             	mov    r14,rdi
  404582:	48 8d 3d 7b 3a 02 00 	lea    rdi,[rip+0x23a7b]        # 428004 <_IO_stdin_used+0x4>
  404589:	e8 f2 fc ff ff       	call   404280 <getenv@plt>
  40458e:	48 85 c0             	test   rax,rax
  404591:	74 60                	je     4045f3 <_Z15printInfotoFilePcS_+0x83>
  404593:	48 8d 3d 6a 3a 02 00 	lea    rdi,[rip+0x23a6a]        # 428004 <_IO_stdin_used+0x4>
  40459a:	e8 e1 fc ff ff       	call   404280 <getenv@plt>
  40459f:	48 89 e3             	mov    rbx,rsp
  4045a2:	48 89 df             	mov    rdi,rbx
  4045a5:	48 89 c6             	mov    rsi,rax
  4045a8:	e8 33 fd ff ff       	call   4042e0 <strcpy@plt>
  4045ad:	48 89 df             	mov    rdi,rbx
  4045b0:	4c 89 fe             	mov    rsi,r15
  4045b3:	e8 78 fc ff ff       	call   404230 <strcat@plt>
  4045b8:	48 8d 35 57 3a 02 00 	lea    rsi,[rip+0x23a57]        # 428016 <_IO_stdin_used+0x16>
  4045bf:	48 89 df             	mov    rdi,rbx
  4045c2:	e8 29 fb ff ff       	call   4040f0 <fopen@plt>
  4045c7:	48 85 c0             	test   rax,rax
  4045ca:	74 27                	je     4045f3 <_Z15printInfotoFilePcS_+0x83>
  4045cc:	48 89 c3             	mov    rbx,rax
  4045cf:	48 8d 35 90 7f 02 00 	lea    rsi,[rip+0x27f90]        # 42c566 <_ZN11__sanitizer14si_SEGV_ACCERRE+0x1d6>
  4045d6:	48 89 c7             	mov    rdi,rax
  4045d9:	4c 89 f2             	mov    rdx,r14
  4045dc:	31 c0                	xor    eax,eax
  4045de:	e8 bd fd ff ff       	call   4043a0 <fprintf@plt>
  4045e3:	48 89 df             	mov    rdi,rbx
  4045e6:	e8 05 fe ff ff       	call   4043f0 <fflush@plt>
  4045eb:	48 89 df             	mov    rdi,rbx
  4045ee:	e8 2d fd ff ff       	call   404320 <fclose@plt>
  4045f3:	48 81 c4 f0 03 00 00 	add    rsp,0x3f0
  4045fa:	5b                   	pop    rbx
  4045fb:	41 5e                	pop    r14
  4045fd:	41 5f                	pop    r15
  4045ff:	c3                   	ret    

0000000000404600 <_Z20InstallAtExitHandlerv>:
  404600:	48 8d 3d 09 00 00 00 	lea    rdi,[rip+0x9]        # 404610 <_ZL13HexTypeAtExitv>
  404607:	e9 14 33 02 00       	jmp    427920 <atexit>
  40460c:	0f 1f 40 00          	nop    DWORD PTR [rax+0x0]

0000000000404610 <_ZL13HexTypeAtExitv>:
  404610:	41 56                	push   r14
  404612:	53                   	push   rbx
  404613:	48 81 ec e8 07 00 00 	sub    rsp,0x7e8
  40461a:	48 8d 35 af 3a 02 00 	lea    rsi,[rip+0x23aaf]        # 4280d0 <_IO_stdin_used+0xd0>
  404621:	4c 8d 74 24 10       	lea    r14,[rsp+0x10]
  404626:	ba e8 03 00 00       	mov    edx,0x3e8
  40462b:	4c 89 f7             	mov    rdi,r14
  40462e:	e8 9d fd ff ff       	call   4043d0 <memcpy@plt>
  404633:	48 8d 15 de 39 02 00 	lea    rdx,[rip+0x239de]        # 428018 <_IO_stdin_used+0x18>
  40463a:	48 8d 9c 24 00 04 00 	lea    rbx,[rsp+0x400]
  404641:	00 
  404642:	be e8 03 00 00       	mov    esi,0x3e8
  404647:	48 89 df             	mov    rdi,rbx
  40464a:	31 c0                	xor    eax,eax
  40464c:	e8 ef f9 ff ff       	call   404040 <snprintf@plt>
  404651:	48 89 df             	mov    rdi,rbx
  404654:	4c 89 f6             	mov    rsi,r14
  404657:	e8 14 ff ff ff       	call   404570 <_Z15printInfotoFilePcS_>
  40465c:	48 8b 0d fd a7 03 00 	mov    rcx,QWORD PTR [rip+0x3a7fd]        # 43ee60 <count_index+0x120>
  404663:	4c 8b 05 16 a8 03 00 	mov    r8,QWORD PTR [rip+0x3a816]        # 43ee80 <count_index+0x140>
  40466a:	4c 8b 0d ff a7 03 00 	mov    r9,QWORD PTR [rip+0x3a7ff]        # 43ee70 <count_index+0x130>
  404671:	48 8b 05 e8 a7 03 00 	mov    rax,QWORD PTR [rip+0x3a7e8]        # 43ee60 <count_index+0x120>
  404678:	48 2b 05 01 a8 03 00 	sub    rax,QWORD PTR [rip+0x3a801]        # 43ee80 <count_index+0x140>
  40467f:	48 2b 05 ea a7 03 00 	sub    rax,QWORD PTR [rip+0x3a7ea]        # 43ee70 <count_index+0x130>
  404686:	48 89 04 24          	mov    QWORD PTR [rsp],rax
  40468a:	48 8d 15 aa 39 02 00 	lea    rdx,[rip+0x239aa]        # 42803b <_IO_stdin_used+0x3b>
  404691:	be e8 03 00 00       	mov    esi,0x3e8
  404696:	48 89 df             	mov    rdi,rbx
  404699:	31 c0                	xor    eax,eax
  40469b:	e8 a0 f9 ff ff       	call   404040 <snprintf@plt>
  4046a0:	48 89 df             	mov    rdi,rbx
  4046a3:	4c 89 f6             	mov    rsi,r14
  4046a6:	e8 c5 fe ff ff       	call   404570 <_Z15printInfotoFilePcS_>
  4046ab:	48 8b 0d b6 a7 03 00 	mov    rcx,QWORD PTR [rip+0x3a7b6]        # 43ee68 <count_index+0x128>
  4046b2:	4c 8b 05 cf a7 03 00 	mov    r8,QWORD PTR [rip+0x3a7cf]        # 43ee88 <count_index+0x148>
  4046b9:	4c 8b 0d b8 a7 03 00 	mov    r9,QWORD PTR [rip+0x3a7b8]        # 43ee78 <count_index+0x138>
  4046c0:	48 8b 05 a1 a7 03 00 	mov    rax,QWORD PTR [rip+0x3a7a1]        # 43ee68 <count_index+0x128>
  4046c7:	48 2b 05 ba a7 03 00 	sub    rax,QWORD PTR [rip+0x3a7ba]        # 43ee88 <count_index+0x148>
  4046ce:	48 2b 05 a3 a7 03 00 	sub    rax,QWORD PTR [rip+0x3a7a3]        # 43ee78 <count_index+0x138>
  4046d5:	48 89 04 24          	mov    QWORD PTR [rsp],rax
  4046d9:	48 8d 15 a3 39 02 00 	lea    rdx,[rip+0x239a3]        # 428083 <_IO_stdin_used+0x83>
  4046e0:	be e8 03 00 00       	mov    esi,0x3e8
  4046e5:	48 89 df             	mov    rdi,rbx
  4046e8:	31 c0                	xor    eax,eax
  4046ea:	e8 51 f9 ff ff       	call   404040 <snprintf@plt>
  4046ef:	48 89 df             	mov    rdi,rbx
  4046f2:	4c 89 f6             	mov    rsi,r14
  4046f5:	e8 76 fe ff ff       	call   404570 <_Z15printInfotoFilePcS_>
  4046fa:	48 81 c4 e8 07 00 00 	add    rsp,0x7e8
  404701:	5b                   	pop    rbx
  404702:	41 5e                	pop    r14
  404704:	c3                   	ret    
  404705:	66 2e 0f 1f 84 00 00 	nop    WORD PTR cs:[rax+rax*1+0x0]
  40470c:	00 00 00 
  40470f:	90                   	nop

0000000000404710 <__profiling_typecheck>:
  404710:	8a 07                	mov    al,BYTE PTR [rdi]
  404712:	3c 03                	cmp    al,0x3
  404714:	74 16                	je     40472c <__profiling_typecheck+0x1c>
  404716:	3c 02                	cmp    al,0x2
  404718:	75 08                	jne    404722 <__profiling_typecheck+0x12>
  40471a:	48 83 05 46 a7 03 00 	add    QWORD PTR [rip+0x3a746],0x1        # 43ee68 <count_index+0x128>
  404721:	01 
  404722:	83 3d 57 c5 03 00 00 	cmp    DWORD PTR [rip+0x3c557],0x0        # 440c80 <isInit>
  404729:	74 12                	je     40473d <__profiling_typecheck+0x2d>
  40472b:	c3                   	ret    
  40472c:	48 83 05 2c a7 03 00 	add    QWORD PTR [rip+0x3a72c],0x1        # 43ee60 <count_index+0x120>
  404733:	01 
  404734:	83 3d 45 c5 03 00 00 	cmp    DWORD PTR [rip+0x3c545],0x0        # 440c80 <isInit>
  40473b:	75 ee                	jne    40472b <__profiling_typecheck+0x1b>
  40473d:	c7 05 39 c5 03 00 01 	mov    DWORD PTR [rip+0x3c539],0x1        # 440c80 <isInit>
  404744:	00 00 00 
  404747:	48 8d 3d c2 fe ff ff 	lea    rdi,[rip+0xfffffffffffffec2]        # 404610 <_ZL13HexTypeAtExitv>
  40474e:	e9 cd 31 02 00       	jmp    427920 <atexit>
  404753:	66 2e 0f 1f 84 00 00 	nop    WORD PTR cs:[rax+rax*1+0x0]
  40475a:	00 00 00 
  40475d:	0f 1f 00             	nop    DWORD PTR [rax]

0000000000404760 <__report_type_confusion>:
  404760:	8a 07                	mov    al,BYTE PTR [rdi]
  404762:	48 85 d2             	test   rdx,rdx
  404765:	74 0d                	je     404774 <__report_type_confusion+0x14>
  404767:	3c 02                	cmp    al,0x2
  404769:	75 16                	jne    404781 <__report_type_confusion+0x21>
  40476b:	48 83 05 15 a7 03 00 	add    QWORD PTR [rip+0x3a715],0x1        # 43ee88 <count_index+0x148>
  404772:	01 
  404773:	c3                   	ret    
  404774:	3c 02                	cmp    al,0x2
  404776:	75 16                	jne    40478e <__report_type_confusion+0x2e>
  404778:	48 83 05 f8 a6 03 00 	add    QWORD PTR [rip+0x3a6f8],0x1        # 43ee78 <count_index+0x138>
  40477f:	01 
  404780:	c3                   	ret    
  404781:	3c 03                	cmp    al,0x3
  404783:	75 08                	jne    40478d <__report_type_confusion+0x2d>
  404785:	48 83 05 f3 a6 03 00 	add    QWORD PTR [rip+0x3a6f3],0x1        # 43ee80 <count_index+0x140>
  40478c:	01 
  40478d:	c3                   	ret    
  40478e:	3c 03                	cmp    al,0x3
  404790:	75 fb                	jne    40478d <__report_type_confusion+0x2d>
  404792:	48 83 05 d6 a6 03 00 	add    QWORD PTR [rip+0x3a6d6],0x1        # 43ee70 <count_index+0x130>
  404799:	01 
  40479a:	c3                   	ret    
  40479b:	0f 1f 44 00 00       	nop    DWORD PTR [rax+rax*1+0x0]

00000000004047a0 <_ZN11__sanitizer18internal_allocatorEv>:
  4047a0:	53                   	push   rbx
  4047a1:	8a 05 59 d5 0b 00    	mov    al,BYTE PTR [rip+0xbd559]        # 4c1d00 <_ZN11__sanitizerL30internal_allocator_initializedE>
  4047a7:	84 c0                	test   al,al
  4047a9:	74 09                	je     4047b4 <_ZN11__sanitizer18internal_allocatorEv+0x14>
  4047ab:	48 8d 05 0e c5 03 00 	lea    rax,[rip+0x3c50e]        # 440cc0 <_ZN11__sanitizerL26internal_alloc_placeholderE>
  4047b2:	5b                   	pop    rbx
  4047b3:	c3                   	ret    
  4047b4:	b0 01                	mov    al,0x1
  4047b6:	86 05 45 d5 0b 00    	xchg   BYTE PTR [rip+0xbd545],al        # 4c1d01 <_ZN11__sanitizerL22internal_alloc_init_muE>
  4047bc:	84 c0                	test   al,al
  4047be:	74 0c                	je     4047cc <_ZN11__sanitizer18internal_allocatorEv+0x2c>
  4047c0:	48 8d 3d 3a d5 0b 00 	lea    rdi,[rip+0xbd53a]        # 4c1d01 <_ZN11__sanitizerL22internal_alloc_init_muE>
  4047c7:	e8 34 1f 00 00       	call   406700 <_ZN11__sanitizer15StaticSpinMutex8LockSlowEv>
  4047cc:	80 3d 2d d5 0b 00 00 	cmp    BYTE PTR [rip+0xbd52d],0x0        # 4c1d00 <_ZN11__sanitizerL30internal_allocator_initializedE>
  4047d3:	0f 85 97 00 00 00    	jne    404870 <_ZN11__sanitizer18internal_allocatorEv+0xd0>
  4047d9:	48 8d 1d e8 d4 0b 00 	lea    rbx,[rip+0xbd4e8]        # 4c1cc8 <_ZN11__sanitizerL26internal_alloc_placeholderE+0x81008>
  4047e0:	ba 28 00 00 00       	mov    edx,0x28
  4047e5:	48 89 df             	mov    rdi,rbx
  4047e8:	31 f6                	xor    esi,esi
  4047ea:	e8 21 7e 00 00       	call   40c610 <_ZN11__sanitizer15internal_memsetEPvim>
  4047ef:	48 8d 3d ca c4 03 00 	lea    rdi,[rip+0x3c4ca]        # 440cc0 <_ZN11__sanitizerL26internal_alloc_placeholderE>
  4047f6:	48 89 1d cb d4 0b 00 	mov    QWORD PTR [rip+0xbd4cb],rbx        # 4c1cc8 <_ZN11__sanitizerL26internal_alloc_placeholderE+0x81008>
  4047fd:	48 89 1d cc d4 0b 00 	mov    QWORD PTR [rip+0xbd4cc],rbx        # 4c1cd0 <_ZN11__sanitizerL26internal_alloc_placeholderE+0x81010>
  404804:	ba 00 00 04 00       	mov    edx,0x40000
  404809:	31 f6                	xor    esi,esi
  40480b:	e8 00 7e 00 00       	call   40c610 <_ZN11__sanitizer15internal_memsetEPvim>
  404810:	c6 05 a9 c4 07 00 00 	mov    BYTE PTR [rip+0x7c4a9],0x0        # 480cc0 <_ZN11__sanitizerL26internal_alloc_placeholderE+0x40000>
  404817:	48 8d 3d e2 c4 07 00 	lea    rdi,[rip+0x7c4e2]        # 480d00 <_ZN11__sanitizerL26internal_alloc_placeholderE+0x40040>
  40481e:	ba 80 0d 00 00       	mov    edx,0xd80
  404823:	31 f6                	xor    esi,esi
  404825:	e8 e6 7d 00 00       	call   40c610 <_ZN11__sanitizer15internal_memsetEPvim>
  40482a:	48 8d 3d 4f d2 07 00 	lea    rdi,[rip+0x7d24f]        # 481a80 <_ZN11__sanitizerL26internal_alloc_placeholderE+0x40dc0>
  404831:	ba 48 02 04 00       	mov    edx,0x40248
  404836:	31 f6                	xor    esi,esi
  404838:	e8 d3 7d 00 00       	call   40c610 <_ZN11__sanitizer15internal_memsetEPvim>
  40483d:	48 8d 1d 04 ad 0c 00 	lea    rbx,[rip+0xcad04]        # 4cf548 <_ZN11__sanitizer14PageSizeCachedE>
  404844:	48 8b 03             	mov    rax,QWORD PTR [rbx]
  404847:	48 85 c0             	test   rax,rax
  40484a:	75 08                	jne    404854 <_ZN11__sanitizer18internal_allocatorEv+0xb4>
  40484c:	e8 2f ab 00 00       	call   40f380 <_ZN11__sanitizer11GetPageSizeEv>
  404851:	48 89 03             	mov    QWORD PTR [rbx],rax
  404854:	48 89 05 25 d2 07 00 	mov    QWORD PTR [rip+0x7d225],rax        # 481a80 <_ZN11__sanitizerL26internal_alloc_placeholderE+0x40dc0>
  40485b:	48 8d 05 2e d2 07 00 	lea    rax,[rip+0x7d22e]        # 481a90 <_ZN11__sanitizerL26internal_alloc_placeholderE+0x40dd0>
  404862:	48 89 05 1f d2 07 00 	mov    QWORD PTR [rip+0x7d21f],rax        # 481a88 <_ZN11__sanitizerL26internal_alloc_placeholderE+0x40dc8>
  404869:	c6 05 90 d4 0b 00 01 	mov    BYTE PTR [rip+0xbd490],0x1        # 4c1d00 <_ZN11__sanitizerL30internal_allocator_initializedE>
  404870:	c6 05 8a d4 0b 00 00 	mov    BYTE PTR [rip+0xbd48a],0x0        # 4c1d01 <_ZN11__sanitizerL22internal_alloc_init_muE>
  404877:	48 8d 05 42 c4 03 00 	lea    rax,[rip+0x3c442]        # 440cc0 <_ZN11__sanitizerL26internal_alloc_placeholderE>
  40487e:	5b                   	pop    rbx
  40487f:	c3                   	ret    

0000000000404880 <_ZN11__sanitizer13InternalAllocEmPNS_30SizeClassAllocator32LocalCacheINS_20SizeClassAllocator32INS_4AP32EEEEEm>:
  404880:	41 57                	push   r15
  404882:	41 56                	push   r14
  404884:	53                   	push   rbx
  404885:	48 83 ff f7          	cmp    rdi,0xfffffffffffffff7
  404889:	76 08                	jbe    404893 <_ZN11__sanitizer13InternalAllocEmPNS_30SizeClassAllocator32LocalCacheINS_20SizeClassAllocator32INS_4AP32EEEEEm+0x13>
  40488b:	31 c0                	xor    eax,eax
  40488d:	5b                   	pop    rbx
  40488e:	41 5e                	pop    r14
  404890:	41 5f                	pop    r15
  404892:	c3                   	ret    
  404893:	48 89 f3             	mov    rbx,rsi
  404896:	49 89 ff             	mov    r15,rdi
  404899:	49 83 c7 08          	add    r15,0x8
  40489d:	48 85 d2             	test   rdx,rdx
  4048a0:	41 be 08 00 00 00    	mov    r14d,0x8
  4048a6:	4c 0f 45 f2          	cmovne r14,rdx
  4048aa:	48 85 f6             	test   rsi,rsi
  4048ad:	74 36                	je     4048e5 <_ZN11__sanitizer13InternalAllocEmPNS_30SizeClassAllocator32LocalCacheINS_20SizeClassAllocator32INS_4AP32EEEEEm+0x65>
  4048af:	e8 ec fe ff ff       	call   4047a0 <_ZN11__sanitizer18internal_allocatorEv>
  4048b4:	48 8d 3d 05 c4 03 00 	lea    rdi,[rip+0x3c405]        # 440cc0 <_ZN11__sanitizerL26internal_alloc_placeholderE>
  4048bb:	48 89 de             	mov    rsi,rbx
  4048be:	4c 89 fa             	mov    rdx,r15
  4048c1:	4c 89 f1             	mov    rcx,r14
  4048c4:	e8 57 05 00 00       	call   404e20 <_ZN11__sanitizer17CombinedAllocatorINS_20SizeClassAllocator32INS_4AP32EEENS_32LargeMmapAllocatorPtrArrayStaticEE8AllocateEPNS_30SizeClassAllocator32LocalCacheIS3_EEmm>
  4048c9:	48 85 c0             	test   rax,rax
  4048cc:	74 59                	je     404927 <_ZN11__sanitizer13InternalAllocEmPNS_30SizeClassAllocator32LocalCacheINS_20SizeClassAllocator32INS_4AP32EEEEEm+0xa7>
  4048ce:	48 b9 41 c0 eb bc 3a 	movabs rcx,0x6a6cb03abcebc041
  4048d5:	b0 6c 6a 
  4048d8:	48 89 08             	mov    QWORD PTR [rax],rcx
  4048db:	48 83 c0 08          	add    rax,0x8
  4048df:	5b                   	pop    rbx
  4048e0:	41 5e                	pop    r14
  4048e2:	41 5f                	pop    r15
  4048e4:	c3                   	ret    
  4048e5:	b0 01                	mov    al,0x1
  4048e7:	86 05 25 d4 0b 00    	xchg   BYTE PTR [rip+0xbd425],al        # 4c1d12 <_ZN11__sanitizerL27internal_allocator_cache_muE>
  4048ed:	84 c0                	test   al,al
  4048ef:	74 0c                	je     4048fd <_ZN11__sanitizer13InternalAllocEmPNS_30SizeClassAllocator32LocalCacheINS_20SizeClassAllocator32INS_4AP32EEEEEm+0x7d>
  4048f1:	48 8d 3d 1a d4 0b 00 	lea    rdi,[rip+0xbd41a]        # 4c1d12 <_ZN11__sanitizerL27internal_allocator_cache_muE>
  4048f8:	e8 03 1e 00 00       	call   406700 <_ZN11__sanitizer15StaticSpinMutex8LockSlowEv>
  4048fd:	e8 9e fe ff ff       	call   4047a0 <_ZN11__sanitizer18internal_allocatorEv>
  404902:	48 8d 3d b7 c3 03 00 	lea    rdi,[rip+0x3c3b7]        # 440cc0 <_ZN11__sanitizerL26internal_alloc_placeholderE>
  404909:	48 8d 35 08 d4 0b 00 	lea    rsi,[rip+0xbd408]        # 4c1d18 <_ZN11__sanitizerL24internal_allocator_cacheE>
  404910:	4c 89 fa             	mov    rdx,r15
  404913:	4c 89 f1             	mov    rcx,r14
  404916:	e8 05 05 00 00       	call   404e20 <_ZN11__sanitizer17CombinedAllocatorINS_20SizeClassAllocator32INS_4AP32EEENS_32LargeMmapAllocatorPtrArrayStaticEE8AllocateEPNS_30SizeClassAllocator32LocalCacheIS3_EEmm>
  40491b:	c6 05 f0 d3 0b 00 00 	mov    BYTE PTR [rip+0xbd3f0],0x0        # 4c1d12 <_ZN11__sanitizerL27internal_allocator_cache_muE>
  404922:	48 85 c0             	test   rax,rax
  404925:	75 a7                	jne    4048ce <_ZN11__sanitizer13InternalAllocEmPNS_30SizeClassAllocator32LocalCacheINS_20SizeClassAllocator32INS_4AP32EEEEEm+0x4e>
  404927:	4c 89 ff             	mov    rdi,r15
  40492a:	e8 01 00 00 00       	call   404930 <_ZN11__sanitizerL34ReportInternalAllocatorOutOfMemoryEm>
  40492f:	90                   	nop

0000000000404930 <_ZN11__sanitizerL34ReportInternalAllocatorOutOfMemoryEm>:
  404930:	50                   	push   rax
  404931:	48 89 fa             	mov    rdx,rdi
  404934:	c6 05 d5 d3 0b 00 01 	mov    BYTE PTR [rip+0xbd3d5],0x1        # 4c1d10 <_ZN11__sanitizerL23allocator_out_of_memoryE>
  40493b:	48 8d 05 e6 78 03 00 	lea    rax,[rip+0x378e6]        # 43c228 <_ZN11__sanitizer17SanitizerToolNameE>
  404942:	48 8b 30             	mov    rsi,QWORD PTR [rax]
  404945:	48 8d 3d c7 43 02 00 	lea    rdi,[rip+0x243c7]        # 428d13 <_IO_stdin_used+0xd13>
  40494c:	31 c0                	xor    eax,eax
  40494e:	e8 0d cc 00 00       	call   411560 <_ZN11__sanitizer6ReportEPKcz>
  404953:	e8 38 03 01 00       	call   414c90 <_ZN11__sanitizer3DieEv>
  404958:	0f 1f 84 00 00 00 00 	nop    DWORD PTR [rax+rax*1+0x0]
  40495f:	00 

0000000000404960 <_ZN11__sanitizer15InternalReallocEPvmPNS_30SizeClassAllocator32LocalCacheINS_20SizeClassAllocator32INS_4AP32EEEEE>:
  404960:	41 57                	push   r15
  404962:	41 56                	push   r14
  404964:	53                   	push   rbx
  404965:	49 89 d7             	mov    r15,rdx
  404968:	49 89 f6             	mov    r14,rsi
  40496b:	48 85 ff             	test   rdi,rdi
  40496e:	74 0e                	je     40497e <_ZN11__sanitizer15InternalReallocEPvmPNS_30SizeClassAllocator32LocalCacheINS_20SizeClassAllocator32INS_4AP32EEEEE+0x1e>
  404970:	49 83 fe f7          	cmp    r14,0xfffffffffffffff7
  404974:	76 1a                	jbe    404990 <_ZN11__sanitizer15InternalReallocEPvmPNS_30SizeClassAllocator32LocalCacheINS_20SizeClassAllocator32INS_4AP32EEEEE+0x30>
  404976:	31 c0                	xor    eax,eax
  404978:	5b                   	pop    rbx
  404979:	41 5e                	pop    r14
  40497b:	41 5f                	pop    r15
  40497d:	c3                   	ret    
  40497e:	4c 89 f7             	mov    rdi,r14
  404981:	4c 89 fe             	mov    rsi,r15
  404984:	31 d2                	xor    edx,edx
  404986:	5b                   	pop    rbx
  404987:	41 5e                	pop    r14
  404989:	41 5f                	pop    r15
  40498b:	e9 f0 fe ff ff       	jmp    404880 <_ZN11__sanitizer13InternalAllocEmPNS_30SizeClassAllocator32LocalCacheINS_20SizeClassAllocator32INS_4AP32EEEEEm>
  404990:	48 89 fb             	mov    rbx,rdi
  404993:	48 b9 41 c0 eb bc 3a 	movabs rcx,0x6a6cb03abcebc041
  40499a:	b0 6c 6a 
  40499d:	4c 8b 47 f8          	mov    r8,QWORD PTR [rdi-0x8]
  4049a1:	49 39 c8             	cmp    r8,rcx
  4049a4:	0f 85 8c 00 00 00    	jne    404a36 <_ZN11__sanitizer15InternalReallocEPvmPNS_30SizeClassAllocator32LocalCacheINS_20SizeClassAllocator32INS_4AP32EEEEE+0xd6>
  4049aa:	49 83 c6 08          	add    r14,0x8
  4049ae:	48 83 c3 f8          	add    rbx,0xfffffffffffffff8
  4049b2:	4d 85 ff             	test   r15,r15
  4049b5:	74 2f                	je     4049e6 <_ZN11__sanitizer15InternalReallocEPvmPNS_30SizeClassAllocator32LocalCacheINS_20SizeClassAllocator32INS_4AP32EEEEE+0x86>
  4049b7:	e8 e4 fd ff ff       	call   4047a0 <_ZN11__sanitizer18internal_allocatorEv>
  4049bc:	48 8d 3d fd c2 03 00 	lea    rdi,[rip+0x3c2fd]        # 440cc0 <_ZN11__sanitizerL26internal_alloc_placeholderE>
  4049c3:	41 b8 08 00 00 00    	mov    r8d,0x8
  4049c9:	4c 89 fe             	mov    rsi,r15
  4049cc:	48 89 da             	mov    rdx,rbx
  4049cf:	4c 89 f1             	mov    rcx,r14
  4049d2:	e8 b9 17 00 00       	call   406190 <_ZN11__sanitizer17CombinedAllocatorINS_20SizeClassAllocator32INS_4AP32EEENS_32LargeMmapAllocatorPtrArrayStaticEE10ReallocateEPNS_30SizeClassAllocator32LocalCacheIS3_EEPvmm>
  4049d7:	48 85 c0             	test   rax,rax
  4049da:	74 52                	je     404a2e <_ZN11__sanitizer15InternalReallocEPvmPNS_30SizeClassAllocator32LocalCacheINS_20SizeClassAllocator32INS_4AP32EEEEE+0xce>
  4049dc:	48 83 c0 08          	add    rax,0x8
  4049e0:	5b                   	pop    rbx
  4049e1:	41 5e                	pop    r14
  4049e3:	41 5f                	pop    r15
  4049e5:	c3                   	ret    
  4049e6:	b0 01                	mov    al,0x1
  4049e8:	86 05 24 d3 0b 00    	xchg   BYTE PTR [rip+0xbd324],al        # 4c1d12 <_ZN11__sanitizerL27internal_allocator_cache_muE>
  4049ee:	84 c0                	test   al,al
  4049f0:	74 0c                	je     4049fe <_ZN11__sanitizer15InternalReallocEPvmPNS_30SizeClassAllocator32LocalCacheINS_20SizeClassAllocator32INS_4AP32EEEEE+0x9e>
  4049f2:	48 8d 3d 19 d3 0b 00 	lea    rdi,[rip+0xbd319]        # 4c1d12 <_ZN11__sanitizerL27internal_allocator_cache_muE>
  4049f9:	e8 02 1d 00 00       	call   406700 <_ZN11__sanitizer15StaticSpinMutex8LockSlowEv>
  4049fe:	e8 9d fd ff ff       	call   4047a0 <_ZN11__sanitizer18internal_allocatorEv>
  404a03:	48 8d 3d b6 c2 03 00 	lea    rdi,[rip+0x3c2b6]        # 440cc0 <_ZN11__sanitizerL26internal_alloc_placeholderE>
  404a0a:	48 8d 35 07 d3 0b 00 	lea    rsi,[rip+0xbd307]        # 4c1d18 <_ZN11__sanitizerL24internal_allocator_cacheE>
  404a11:	41 b8 08 00 00 00    	mov    r8d,0x8
  404a17:	48 89 da             	mov    rdx,rbx
  404a1a:	4c 89 f1             	mov    rcx,r14
  404a1d:	e8 6e 17 00 00       	call   406190 <_ZN11__sanitizer17CombinedAllocatorINS_20SizeClassAllocator32INS_4AP32EEENS_32LargeMmapAllocatorPtrArrayStaticEE10ReallocateEPNS_30SizeClassAllocator32LocalCacheIS3_EEPvmm>
  404a22:	c6 05 e9 d2 0b 00 00 	mov    BYTE PTR [rip+0xbd2e9],0x0        # 4c1d12 <_ZN11__sanitizerL27internal_allocator_cache_muE>
  404a29:	48 85 c0             	test   rax,rax
  404a2c:	75 ae                	jne    4049dc <_ZN11__sanitizer15InternalReallocEPvmPNS_30SizeClassAllocator32LocalCacheINS_20SizeClassAllocator32INS_4AP32EEEEE+0x7c>
  404a2e:	4c 89 f7             	mov    rdi,r14
  404a31:	e8 fa fe ff ff       	call   404930 <_ZN11__sanitizerL34ReportInternalAllocatorOutOfMemoryEm>
  404a36:	48 8d 3d a1 3a 02 00 	lea    rdi,[rip+0x23aa1]        # 4284de <_IO_stdin_used+0x4de>
  404a3d:	48 8d 15 03 3b 02 00 	lea    rdx,[rip+0x23b03]        # 428547 <_IO_stdin_used+0x547>
  404a44:	be ad 00 00 00       	mov    esi,0xad
  404a49:	e8 22 03 01 00       	call   414d70 <_ZN11__sanitizer11CheckFailedEPKciS1_yy>
  404a4e:	66 90                	xchg   ax,ax

0000000000404a50 <_ZN11__sanitizer20InternalReallocArrayEPvmmPNS_30SizeClassAllocator32LocalCacheINS_20SizeClassAllocator32INS_4AP32EEEEE>:
  404a50:	49 89 d1             	mov    r9,rdx
  404a53:	49 89 f0             	mov    r8,rsi
  404a56:	48 89 f0             	mov    rax,rsi
  404a59:	48 f7 e2             	mul    rdx
  404a5c:	70 0f                	jo     404a6d <_ZN11__sanitizer20InternalReallocArrayEPvmmPNS_30SizeClassAllocator32LocalCacheINS_20SizeClassAllocator32INS_4AP32EEEEE+0x1d>
  404a5e:	4d 0f af c8          	imul   r9,r8
  404a62:	4c 89 ce             	mov    rsi,r9
  404a65:	48 89 ca             	mov    rdx,rcx
  404a68:	e9 f3 fe ff ff       	jmp    404960 <_ZN11__sanitizer15InternalReallocEPvmPNS_30SizeClassAllocator32LocalCacheINS_20SizeClassAllocator32INS_4AP32EEEEE>
  404a6d:	50                   	push   rax
  404a6e:	48 8d 05 b3 77 03 00 	lea    rax,[rip+0x377b3]        # 43c228 <_ZN11__sanitizer17SanitizerToolNameE>
  404a75:	48 8b 30             	mov    rsi,QWORD PTR [rax]
  404a78:	48 8d 3d e8 3a 02 00 	lea    rdi,[rip+0x23ae8]        # 428567 <_IO_stdin_used+0x567>
  404a7f:	4c 89 c2             	mov    rdx,r8
  404a82:	4c 89 c9             	mov    rcx,r9
  404a85:	31 c0                	xor    eax,eax
  404a87:	e8 d4 ca 00 00       	call   411560 <_ZN11__sanitizer6ReportEPKcz>
  404a8c:	e8 ff 01 01 00       	call   414c90 <_ZN11__sanitizer3DieEv>
  404a91:	66 2e 0f 1f 84 00 00 	nop    WORD PTR cs:[rax+rax*1+0x0]
  404a98:	00 00 00 
  404a9b:	0f 1f 44 00 00       	nop    DWORD PTR [rax+rax*1+0x0]

0000000000404aa0 <_ZN11__sanitizer14InternalCallocEmmPNS_30SizeClassAllocator32LocalCacheINS_20SizeClassAllocator32INS_4AP32EEEEE>:
  404aa0:	41 56                	push   r14
  404aa2:	53                   	push   rbx
  404aa3:	50                   	push   rax
  404aa4:	48 89 d3             	mov    rbx,rdx
  404aa7:	49 89 f6             	mov    r14,rsi
  404aaa:	48 89 f9             	mov    rcx,rdi
  404aad:	48 89 f8             	mov    rax,rdi
  404ab0:	48 f7 e6             	mul    rsi
  404ab3:	70 31                	jo     404ae6 <_ZN11__sanitizer14InternalCallocEmmPNS_30SizeClassAllocator32LocalCacheINS_20SizeClassAllocator32INS_4AP32EEEEE+0x46>
  404ab5:	4c 0f af f1          	imul   r14,rcx
  404ab9:	4c 89 f7             	mov    rdi,r14
  404abc:	48 89 de             	mov    rsi,rbx
  404abf:	31 d2                	xor    edx,edx
  404ac1:	e8 ba fd ff ff       	call   404880 <_ZN11__sanitizer13InternalAllocEmPNS_30SizeClassAllocator32LocalCacheINS_20SizeClassAllocator32INS_4AP32EEEEEm>
  404ac6:	48 89 c3             	mov    rbx,rax
  404ac9:	48 85 c0             	test   rax,rax
  404acc:	74 0d                	je     404adb <_ZN11__sanitizer14InternalCallocEmmPNS_30SizeClassAllocator32LocalCacheINS_20SizeClassAllocator32INS_4AP32EEEEE+0x3b>
  404ace:	48 89 df             	mov    rdi,rbx
  404ad1:	31 f6                	xor    esi,esi
  404ad3:	4c 89 f2             	mov    rdx,r14
  404ad6:	e8 35 7b 00 00       	call   40c610 <_ZN11__sanitizer15internal_memsetEPvim>
  404adb:	48 89 d8             	mov    rax,rbx
  404ade:	48 83 c4 08          	add    rsp,0x8
  404ae2:	5b                   	pop    rbx
  404ae3:	41 5e                	pop    r14
  404ae5:	c3                   	ret    
  404ae6:	48 8d 05 3b 77 03 00 	lea    rax,[rip+0x3773b]        # 43c228 <_ZN11__sanitizer17SanitizerToolNameE>
  404aed:	48 8b 30             	mov    rsi,QWORD PTR [rax]
  404af0:	48 8d 3d dc 3a 02 00 	lea    rdi,[rip+0x23adc]        # 4285d3 <_IO_stdin_used+0x5d3>
  404af7:	48 89 ca             	mov    rdx,rcx
  404afa:	4c 89 f1             	mov    rcx,r14
  404afd:	31 c0                	xor    eax,eax
  404aff:	e8 5c ca 00 00       	call   411560 <_ZN11__sanitizer6ReportEPKcz>
  404b04:	e8 87 01 01 00       	call   414c90 <_ZN11__sanitizer3DieEv>
  404b09:	0f 1f 80 00 00 00 00 	nop    DWORD PTR [rax+0x0]

0000000000404b10 <_ZN11__sanitizer12InternalFreeEPvPNS_30SizeClassAllocator32LocalCacheINS_20SizeClassAllocator32INS_4AP32EEEEE>:
  404b10:	41 57                	push   r15
  404b12:	41 56                	push   r14
  404b14:	53                   	push   rbx
  404b15:	48 85 ff             	test   rdi,rdi
  404b18:	0f 84 04 01 00 00    	je     404c22 <_ZN11__sanitizer12InternalFreeEPvPNS_30SizeClassAllocator32LocalCacheINS_20SizeClassAllocator32INS_4AP32EEEEE+0x112>
  404b1e:	48 89 fb             	mov    rbx,rdi
  404b21:	48 b9 41 c0 eb bc 3a 	movabs rcx,0x6a6cb03abcebc041
  404b28:	b0 6c 6a 
  404b2b:	4c 8b 47 f8          	mov    r8,QWORD PTR [rdi-0x8]
  404b2f:	49 39 c8             	cmp    r8,rcx
  404b32:	0f 85 23 01 00 00    	jne    404c5b <_ZN11__sanitizer12InternalFreeEPvPNS_30SizeClassAllocator32LocalCacheINS_20SizeClassAllocator32INS_4AP32EEEEE+0x14b>
  404b38:	49 89 f6             	mov    r14,rsi
  404b3b:	48 83 c3 f8          	add    rbx,0xfffffffffffffff8
  404b3f:	49 bf ff ff ff ff ff 	movabs r15,0x7fffffffffff
  404b46:	7f 00 00 
  404b49:	48 c7 03 00 00 00 00 	mov    QWORD PTR [rbx],0x0
  404b50:	48 85 f6             	test   rsi,rsi
  404b53:	74 5d                	je     404bb2 <_ZN11__sanitizer12InternalFreeEPvPNS_30SizeClassAllocator32LocalCacheINS_20SizeClassAllocator32INS_4AP32EEEEE+0xa2>
  404b55:	e8 46 fc ff ff       	call   4047a0 <_ZN11__sanitizer18internal_allocatorEv>
  404b5a:	4c 39 fb             	cmp    rbx,r15
  404b5d:	77 38                	ja     404b97 <_ZN11__sanitizer12InternalFreeEPvPNS_30SizeClassAllocator32LocalCacheINS_20SizeClassAllocator32INS_4AP32EEEEE+0x87>
  404b5f:	48 89 d8             	mov    rax,rbx
  404b62:	48 c1 e8 20          	shr    rax,0x20
  404b66:	48 8d 0d 53 c1 03 00 	lea    rcx,[rip+0x3c153]        # 440cc0 <_ZN11__sanitizerL26internal_alloc_placeholderE>
  404b6d:	48 8b 34 c1          	mov    rsi,QWORD PTR [rcx+rax*8]
  404b71:	48 85 f6             	test   rsi,rsi
  404b74:	74 21                	je     404b97 <_ZN11__sanitizer12InternalFreeEPvPNS_30SizeClassAllocator32LocalCacheINS_20SizeClassAllocator32INS_4AP32EEEEE+0x87>
  404b76:	89 da                	mov    edx,ebx
  404b78:	c1 ea 14             	shr    edx,0x14
  404b7b:	80 3c 16 00          	cmp    BYTE PTR [rsi+rdx*1],0x0
  404b7f:	74 16                	je     404b97 <_ZN11__sanitizer12InternalFreeEPvPNS_30SizeClassAllocator32LocalCacheINS_20SizeClassAllocator32INS_4AP32EEEEE+0x87>
  404b81:	48 8b 04 c1          	mov    rax,QWORD PTR [rcx+rax*8]
  404b85:	48 85 c0             	test   rax,rax
  404b88:	0f 84 9a 00 00 00    	je     404c28 <_ZN11__sanitizer12InternalFreeEPvPNS_30SizeClassAllocator32LocalCacheINS_20SizeClassAllocator32INS_4AP32EEEEE+0x118>
  404b8e:	0f b6 14 10          	movzx  edx,BYTE PTR [rax+rdx*1]
  404b92:	e9 93 00 00 00       	jmp    404c2a <_ZN11__sanitizer12InternalFreeEPvPNS_30SizeClassAllocator32LocalCacheINS_20SizeClassAllocator32INS_4AP32EEEEE+0x11a>
  404b97:	48 8d 3d e2 ce 07 00 	lea    rdi,[rip+0x7cee2]        # 481a80 <_ZN11__sanitizerL26internal_alloc_placeholderE+0x40dc0>
  404b9e:	48 8d 35 23 d1 0b 00 	lea    rsi,[rip+0xbd123]        # 4c1cc8 <_ZN11__sanitizerL26internal_alloc_placeholderE+0x81008>
  404ba5:	48 89 da             	mov    rdx,rbx
  404ba8:	5b                   	pop    rbx
  404ba9:	41 5e                	pop    r14
  404bab:	41 5f                	pop    r15
  404bad:	e9 ae 18 00 00       	jmp    406460 <_ZN11__sanitizer18LargeMmapAllocatorINS_20NoOpMapUnmapCallbackENS_32LargeMmapAllocatorPtrArrayStaticENS_21LocalAddressSpaceViewEE10DeallocateEPNS_14AllocatorStatsEPv>
  404bb2:	b0 01                	mov    al,0x1
  404bb4:	86 05 58 d1 0b 00    	xchg   BYTE PTR [rip+0xbd158],al        # 4c1d12 <_ZN11__sanitizerL27internal_allocator_cache_muE>
  404bba:	84 c0                	test   al,al
  404bbc:	74 0c                	je     404bca <_ZN11__sanitizer12InternalFreeEPvPNS_30SizeClassAllocator32LocalCacheINS_20SizeClassAllocator32INS_4AP32EEEEE+0xba>
  404bbe:	48 8d 3d 4d d1 0b 00 	lea    rdi,[rip+0xbd14d]        # 4c1d12 <_ZN11__sanitizerL27internal_allocator_cache_muE>
  404bc5:	e8 36 1b 00 00       	call   406700 <_ZN11__sanitizer15StaticSpinMutex8LockSlowEv>
  404bca:	e8 d1 fb ff ff       	call   4047a0 <_ZN11__sanitizer18internal_allocatorEv>
  404bcf:	4c 39 fb             	cmp    rbx,r15
  404bd2:	77 31                	ja     404c05 <_ZN11__sanitizer12InternalFreeEPvPNS_30SizeClassAllocator32LocalCacheINS_20SizeClassAllocator32INS_4AP32EEEEE+0xf5>
  404bd4:	48 89 d8             	mov    rax,rbx
  404bd7:	48 c1 e8 20          	shr    rax,0x20
  404bdb:	48 8d 0d de c0 03 00 	lea    rcx,[rip+0x3c0de]        # 440cc0 <_ZN11__sanitizerL26internal_alloc_placeholderE>
  404be2:	48 8b 34 c1          	mov    rsi,QWORD PTR [rcx+rax*8]
  404be6:	48 85 f6             	test   rsi,rsi
  404be9:	74 1a                	je     404c05 <_ZN11__sanitizer12InternalFreeEPvPNS_30SizeClassAllocator32LocalCacheINS_20SizeClassAllocator32INS_4AP32EEEEE+0xf5>
  404beb:	89 da                	mov    edx,ebx
  404bed:	c1 ea 14             	shr    edx,0x14
  404bf0:	80 3c 16 00          	cmp    BYTE PTR [rsi+rdx*1],0x0
  404bf4:	74 0f                	je     404c05 <_ZN11__sanitizer12InternalFreeEPvPNS_30SizeClassAllocator32LocalCacheINS_20SizeClassAllocator32INS_4AP32EEEEE+0xf5>
  404bf6:	48 8b 04 c1          	mov    rax,QWORD PTR [rcx+rax*8]
  404bfa:	48 85 c0             	test   rax,rax
  404bfd:	74 42                	je     404c41 <_ZN11__sanitizer12InternalFreeEPvPNS_30SizeClassAllocator32LocalCacheINS_20SizeClassAllocator32INS_4AP32EEEEE+0x131>
  404bff:	0f b6 14 10          	movzx  edx,BYTE PTR [rax+rdx*1]
  404c03:	eb 3e                	jmp    404c43 <_ZN11__sanitizer12InternalFreeEPvPNS_30SizeClassAllocator32LocalCacheINS_20SizeClassAllocator32INS_4AP32EEEEE+0x133>
  404c05:	48 8d 3d 74 ce 07 00 	lea    rdi,[rip+0x7ce74]        # 481a80 <_ZN11__sanitizerL26internal_alloc_placeholderE+0x40dc0>
  404c0c:	48 8d 35 b5 d0 0b 00 	lea    rsi,[rip+0xbd0b5]        # 4c1cc8 <_ZN11__sanitizerL26internal_alloc_placeholderE+0x81008>
  404c13:	48 89 da             	mov    rdx,rbx
  404c16:	e8 45 18 00 00       	call   406460 <_ZN11__sanitizer18LargeMmapAllocatorINS_20NoOpMapUnmapCallbackENS_32LargeMmapAllocatorPtrArrayStaticENS_21LocalAddressSpaceViewEE10DeallocateEPNS_14AllocatorStatsEPv>
  404c1b:	c6 05 f0 d0 0b 00 00 	mov    BYTE PTR [rip+0xbd0f0],0x0        # 4c1d12 <_ZN11__sanitizerL27internal_allocator_cache_muE>
  404c22:	5b                   	pop    rbx
  404c23:	41 5e                	pop    r14
  404c25:	41 5f                	pop    r15
  404c27:	c3                   	ret    
  404c28:	31 d2                	xor    edx,edx
  404c2a:	48 8d 35 8f c0 03 00 	lea    rsi,[rip+0x3c08f]        # 440cc0 <_ZN11__sanitizerL26internal_alloc_placeholderE>
  404c31:	4c 89 f7             	mov    rdi,r14
  404c34:	48 89 d9             	mov    rcx,rbx
  404c37:	5b                   	pop    rbx
  404c38:	41 5e                	pop    r14
  404c3a:	41 5f                	pop    r15
  404c3c:	e9 8f 0f 00 00       	jmp    405bd0 <_ZN11__sanitizer30SizeClassAllocator32LocalCacheINS_20SizeClassAllocator32INS_4AP32EEEE10DeallocateEPS3_mPv>
  404c41:	31 d2                	xor    edx,edx
  404c43:	48 8d 3d ce d0 0b 00 	lea    rdi,[rip+0xbd0ce]        # 4c1d18 <_ZN11__sanitizerL24internal_allocator_cacheE>
  404c4a:	48 8d 35 6f c0 03 00 	lea    rsi,[rip+0x3c06f]        # 440cc0 <_ZN11__sanitizerL26internal_alloc_placeholderE>
  404c51:	48 89 d9             	mov    rcx,rbx
  404c54:	e8 77 0f 00 00       	call   405bd0 <_ZN11__sanitizer30SizeClassAllocator32LocalCacheINS_20SizeClassAllocator32INS_4AP32EEEE10DeallocateEPS3_mPv>
  404c59:	eb c0                	jmp    404c1b <_ZN11__sanitizer12InternalFreeEPvPNS_30SizeClassAllocator32LocalCacheINS_20SizeClassAllocator32INS_4AP32EEEEE+0x10b>
  404c5b:	48 8d 3d 7c 38 02 00 	lea    rdi,[rip+0x2387c]        # 4284de <_IO_stdin_used+0x4de>
  404c62:	48 8d 15 de 38 02 00 	lea    rdx,[rip+0x238de]        # 428547 <_IO_stdin_used+0x547>
  404c69:	be d1 00 00 00       	mov    esi,0xd1
  404c6e:	e8 fd 00 01 00       	call   414d70 <_ZN11__sanitizer11CheckFailedEPKciS1_yy>
  404c73:	66 2e 0f 1f 84 00 00 	nop    WORD PTR cs:[rax+rax*1+0x0]
  404c7a:	00 00 00 
  404c7d:	0f 1f 00             	nop    DWORD PTR [rax]

0000000000404c80 <_ZN11__sanitizer17LowLevelAllocator8AllocateEm>:
  404c80:	41 57                	push   r15
  404c82:	41 56                	push   r14
  404c84:	41 54                	push   r12
  404c86:	53                   	push   rbx
  404c87:	50                   	push   rax
  404c88:	48 8b 1d 91 75 03 00 	mov    rbx,QWORD PTR [rip+0x37591]        # 43c220 <_ZN11__sanitizerL29low_level_alloc_min_alignmentE>
  404c8f:	48 8d 43 ff          	lea    rax,[rbx-0x1]
  404c93:	48 85 c3             	test   rbx,rax
  404c96:	0f 85 aa 00 00 00    	jne    404d46 <_ZN11__sanitizer17LowLevelAllocator8AllocateEm+0xc6>
  404c9c:	49 89 fe             	mov    r14,rdi
  404c9f:	48 8d 04 1e          	lea    rax,[rsi+rbx*1]
  404ca3:	48 83 c0 ff          	add    rax,0xffffffffffffffff
  404ca7:	48 f7 db             	neg    rbx
  404caa:	48 21 c3             	and    rbx,rax
  404cad:	48 8b 0f             	mov    rcx,QWORD PTR [rdi]
  404cb0:	48 8b 47 08          	mov    rax,QWORD PTR [rdi+0x8]
  404cb4:	48 89 ca             	mov    rdx,rcx
  404cb7:	48 29 c2             	sub    rdx,rax
  404cba:	48 39 da             	cmp    rdx,rbx
  404cbd:	7d 6c                	jge    404d2b <_ZN11__sanitizer17LowLevelAllocator8AllocateEm+0xab>
  404cbf:	4c 8d 25 82 a8 0c 00 	lea    r12,[rip+0xca882]        # 4cf548 <_ZN11__sanitizer14PageSizeCachedE>
  404cc6:	4d 8b 3c 24          	mov    r15,QWORD PTR [r12]
  404cca:	4d 85 ff             	test   r15,r15
  404ccd:	75 0c                	jne    404cdb <_ZN11__sanitizer17LowLevelAllocator8AllocateEm+0x5b>
  404ccf:	e8 ac a6 00 00       	call   40f380 <_ZN11__sanitizer11GetPageSizeEv>
  404cd4:	49 89 c7             	mov    r15,rax
  404cd7:	49 89 04 24          	mov    QWORD PTR [r12],rax
  404cdb:	49 8d 47 ff          	lea    rax,[r15-0x1]
  404cdf:	49 85 c7             	test   r15,rax
  404ce2:	75 62                	jne    404d46 <_ZN11__sanitizer17LowLevelAllocator8AllocateEm+0xc6>
  404ce4:	4a 8d 04 3b          	lea    rax,[rbx+r15*1]
  404ce8:	48 83 c0 ff          	add    rax,0xffffffffffffffff
  404cec:	49 f7 df             	neg    r15
  404cef:	49 21 c7             	and    r15,rax
  404cf2:	48 8d 35 40 39 02 00 	lea    rsi,[rip+0x23940]        # 428639 <_IO_stdin_used+0x639>
  404cf9:	4c 89 ff             	mov    rdi,r15
  404cfc:	31 d2                	xor    edx,edx
  404cfe:	e8 0d b0 00 00       	call   40fd10 <_ZN11__sanitizer9MmapOrDieEmPKcb>
  404d03:	49 89 46 08          	mov    QWORD PTR [r14+0x8],rax
  404d07:	48 89 c1             	mov    rcx,rax
  404d0a:	4c 01 f9             	add    rcx,r15
  404d0d:	49 89 0e             	mov    QWORD PTR [r14],rcx
  404d10:	48 8b 15 f1 cf 0b 00 	mov    rdx,QWORD PTR [rip+0xbcff1]        # 4c1d08 <_ZN11__sanitizerL24low_level_alloc_callbackE>
  404d17:	48 85 d2             	test   rdx,rdx
  404d1a:	74 0f                	je     404d2b <_ZN11__sanitizer17LowLevelAllocator8AllocateEm+0xab>
  404d1c:	48 89 c7             	mov    rdi,rax
  404d1f:	4c 89 fe             	mov    rsi,r15
  404d22:	ff d2                	call   rdx
  404d24:	49 8b 0e             	mov    rcx,QWORD PTR [r14]
  404d27:	49 8b 46 08          	mov    rax,QWORD PTR [r14+0x8]
  404d2b:	48 29 c1             	sub    rcx,rax
  404d2e:	48 39 d9             	cmp    rcx,rbx
  404d31:	7c 24                	jl     404d57 <_ZN11__sanitizer17LowLevelAllocator8AllocateEm+0xd7>
  404d33:	48 01 c3             	add    rbx,rax
  404d36:	49 89 5e 08          	mov    QWORD PTR [r14+0x8],rbx
  404d3a:	48 83 c4 08          	add    rsp,0x8
  404d3e:	5b                   	pop    rbx
  404d3f:	41 5c                	pop    r12
  404d41:	41 5e                	pop    r14
  404d43:	41 5f                	pop    r15
  404d45:	c3                   	ret    
  404d46:	48 8d 3d fd 40 02 00 	lea    rdi,[rip+0x240fd]        # 428e4a <_IO_stdin_used+0xe4a>
  404d4d:	e8 7e 45 00 00       	call   4092d0 <_ZN11__sanitizer8RawWriteEPKc>
  404d52:	e8 39 ff 00 00       	call   414c90 <_ZN11__sanitizer3DieEv>
  404d57:	48 8d 3d 80 37 02 00 	lea    rdi,[rip+0x23780]        # 4284de <_IO_stdin_used+0x4de>
  404d5e:	48 8d 15 dd 38 02 00 	lea    rdx,[rip+0x238dd]        # 428642 <_IO_stdin_used+0x642>
  404d65:	be e8 00 00 00       	mov    esi,0xe8
  404d6a:	31 c9                	xor    ecx,ecx
  404d6c:	45 31 c0             	xor    r8d,r8d
  404d6f:	e8 fc ff 00 00       	call   414d70 <_ZN11__sanitizer11CheckFailedEPKciS1_yy>
  404d74:	66 2e 0f 1f 84 00 00 	nop    WORD PTR cs:[rax+rax*1+0x0]
  404d7b:	00 00 00 
  404d7e:	66 90                	xchg   ax,ax

0000000000404d80 <_ZN11__sanitizer31SetLowLevelAllocateMinAlignmentEm>:
  404d80:	50                   	push   rax
  404d81:	48 8d 47 ff          	lea    rax,[rdi-0x1]
  404d85:	48 85 c7             	test   rdi,rax
  404d88:	75 17                	jne    404da1 <_ZN11__sanitizer31SetLowLevelAllocateMinAlignmentEm+0x21>
  404d8a:	48 8b 05 8f 74 03 00 	mov    rax,QWORD PTR [rip+0x3748f]        # 43c220 <_ZN11__sanitizerL29low_level_alloc_min_alignmentE>
  404d91:	48 39 f8             	cmp    rax,rdi
  404d94:	48 0f 42 c7          	cmovb  rax,rdi
  404d98:	48 89 05 81 74 03 00 	mov    QWORD PTR [rip+0x37481],rax        # 43c220 <_ZN11__sanitizerL29low_level_alloc_min_alignmentE>
  404d9f:	58                   	pop    rax
  404da0:	c3                   	ret    
  404da1:	48 8d 3d 36 37 02 00 	lea    rdi,[rip+0x23736]        # 4284de <_IO_stdin_used+0x4de>
  404da8:	48 8d 15 d0 38 02 00 	lea    rdx,[rip+0x238d0]        # 42867f <_IO_stdin_used+0x67f>
  404daf:	be ef 00 00 00       	mov    esi,0xef
  404db4:	31 c9                	xor    ecx,ecx
  404db6:	45 31 c0             	xor    r8d,r8d
  404db9:	e8 b2 ff 00 00       	call   414d70 <_ZN11__sanitizer11CheckFailedEPKciS1_yy>
  404dbe:	66 90                	xchg   ax,ax

0000000000404dc0 <_ZN11__sanitizer27SetLowLevelAllocateCallbackEPFvmmE>:
  404dc0:	48 89 3d 41 cf 0b 00 	mov    QWORD PTR [rip+0xbcf41],rdi        # 4c1d08 <_ZN11__sanitizerL24low_level_alloc_callbackE>
  404dc7:	c3                   	ret    
  404dc8:	0f 1f 84 00 00 00 00 	nop    DWORD PTR [rax+rax*1+0x0]
  404dcf:	00 

0000000000404dd0 <_ZN11__sanitizer22IsAllocatorOutOfMemoryEv>:
  404dd0:	80 3d 39 cf 0b 00 00 	cmp    BYTE PTR [rip+0xbcf39],0x0        # 4c1d10 <_ZN11__sanitizerL23allocator_out_of_memoryE>
  404dd7:	0f 95 c0             	setne  al
  404dda:	c3                   	ret    
  404ddb:	0f 1f 44 00 00       	nop    DWORD PTR [rax+rax*1+0x0]

0000000000404de0 <_ZN11__sanitizer23SetAllocatorOutOfMemoryEv>:
  404de0:	c6 05 29 cf 0b 00 01 	mov    BYTE PTR [rip+0xbcf29],0x1        # 4c1d10 <_ZN11__sanitizerL23allocator_out_of_memoryE>
  404de7:	c3                   	ret    
  404de8:	0f 1f 84 00 00 00 00 	nop    DWORD PTR [rax+rax*1+0x0]
  404def:	00 

0000000000404df0 <_ZN11__sanitizer22AllocatorMayReturnNullEv>:
  404df0:	80 3d 1a cf 0b 00 00 	cmp    BYTE PTR [rip+0xbcf1a],0x0        # 4c1d11 <_ZN11__sanitizerL25allocator_may_return_nullE>
  404df7:	0f 95 c0             	setne  al
  404dfa:	c3                   	ret    
  404dfb:	0f 1f 44 00 00       	nop    DWORD PTR [rax+rax*1+0x0]

0000000000404e00 <_ZN11__sanitizer25SetAllocatorMayReturnNullEb>:
  404e00:	40 88 3d 0a cf 0b 00 	mov    BYTE PTR [rip+0xbcf0a],dil        # 4c1d11 <_ZN11__sanitizerL25allocator_may_return_nullE>
  404e07:	c3                   	ret    
  404e08:	0f 1f 84 00 00 00 00 	nop    DWORD PTR [rax+rax*1+0x0]
  404e0f:	00 

0000000000404e10 <_ZN11__sanitizer34PrintHintAllocatorCannotReturnNullEv>:
  404e10:	48 8d 3d 8b 38 02 00 	lea    rdi,[rip+0x2388b]        # 4286a2 <_IO_stdin_used+0x6a2>
  404e17:	31 c0                	xor    eax,eax
  404e19:	e9 42 c7 00 00       	jmp    411560 <_ZN11__sanitizer6ReportEPKcz>
  404e1e:	66 90                	xchg   ax,ax

0000000000404e20 <_ZN11__sanitizer17CombinedAllocatorINS_20SizeClassAllocator32INS_4AP32EEENS_32LargeMmapAllocatorPtrArrayStaticEE8AllocateEPNS_30SizeClassAllocator32LocalCacheIS3_EEmm>:
  404e20:	41 57                	push   r15
  404e22:	41 56                	push   r14
  404e24:	41 54                	push   r12
  404e26:	53                   	push   rbx
  404e27:	50                   	push   rax
  404e28:	49 89 cf             	mov    r15,rcx
  404e2b:	48 89 d0             	mov    rax,rdx
  404e2e:	48 85 d2             	test   rdx,rdx
  404e31:	ba 01 00 00 00       	mov    edx,0x1
  404e36:	48 0f 45 d0          	cmovne rdx,rax
  404e3a:	48 89 d0             	mov    rax,rdx
  404e3d:	48 f7 d0             	not    rax
  404e40:	48 39 c8             	cmp    rax,rcx
  404e43:	73 22                	jae    404e67 <_ZN11__sanitizer17CombinedAllocatorINS_20SizeClassAllocator32INS_4AP32EEENS_32LargeMmapAllocatorPtrArrayStaticEE8AllocateEPNS_30SizeClassAllocator32LocalCacheIS3_EEmm+0x47>
  404e45:	48 8d 05 dc 73 03 00 	lea    rax,[rip+0x373dc]        # 43c228 <_ZN11__sanitizer17SanitizerToolNameE>
  404e4c:	48 8b 30             	mov    rsi,QWORD PTR [rax]
  404e4f:	48 8d 3d a0 38 02 00 	lea    rdi,[rip+0x238a0]        # 4286f6 <_IO_stdin_used+0x6f6>
  404e56:	31 db                	xor    ebx,ebx
  404e58:	4c 89 f9             	mov    rcx,r15
  404e5b:	31 c0                	xor    eax,eax
  404e5d:	e8 fe c6 00 00       	call   411560 <_ZN11__sanitizer6ReportEPKcz>
  404e62:	e9 fb 00 00 00       	jmp    404f62 <_ZN11__sanitizer17CombinedAllocatorINS_20SizeClassAllocator32INS_4AP32EEENS_32LargeMmapAllocatorPtrArrayStaticEE8AllocateEPNS_30SizeClassAllocator32LocalCacheIS3_EEmm+0x142>
  404e67:	49 89 f6             	mov    r14,rsi
  404e6a:	49 89 f8             	mov    r8,rdi
  404e6d:	48 89 d0             	mov    rax,rdx
  404e70:	49 83 ff 09          	cmp    r15,0x9
  404e74:	72 1e                	jb     404e94 <_ZN11__sanitizer17CombinedAllocatorINS_20SizeClassAllocator32INS_4AP32EEENS_32LargeMmapAllocatorPtrArrayStaticEE8AllocateEPNS_30SizeClassAllocator32LocalCacheIS3_EEmm+0x74>
  404e76:	49 8d 47 ff          	lea    rax,[r15-0x1]
  404e7a:	49 85 c7             	test   r15,rax
  404e7d:	0f 85 12 01 00 00    	jne    404f95 <_ZN11__sanitizer17CombinedAllocatorINS_20SizeClassAllocator32INS_4AP32EEENS_32LargeMmapAllocatorPtrArrayStaticEE8AllocateEPNS_30SizeClassAllocator32LocalCacheIS3_EEmm+0x175>
  404e83:	49 8d 0c 17          	lea    rcx,[r15+rdx*1]
  404e87:	48 83 c1 ff          	add    rcx,0xffffffffffffffff
  404e8b:	4c 89 f8             	mov    rax,r15
  404e8e:	48 f7 d8             	neg    rax
  404e91:	48 21 c8             	and    rax,rcx
  404e94:	49 81 ff 00 00 02 00 	cmp    r15,0x20000
  404e9b:	77 1a                	ja     404eb7 <_ZN11__sanitizer17CombinedAllocatorINS_20SizeClassAllocator32INS_4AP32EEENS_32LargeMmapAllocatorPtrArrayStaticEE8AllocateEPNS_30SizeClassAllocator32LocalCacheIS3_EEmm+0x97>
  404e9d:	48 3d 00 00 02 00    	cmp    rax,0x20000
  404ea3:	77 12                	ja     404eb7 <_ZN11__sanitizer17CombinedAllocatorINS_20SizeClassAllocator32INS_4AP32EEENS_32LargeMmapAllocatorPtrArrayStaticEE8AllocateEPNS_30SizeClassAllocator32LocalCacheIS3_EEmm+0x97>
  404ea5:	48 3d 00 01 00 00    	cmp    rax,0x100
  404eab:	77 31                	ja     404ede <_ZN11__sanitizer17CombinedAllocatorINS_20SizeClassAllocator32INS_4AP32EEENS_32LargeMmapAllocatorPtrArrayStaticEE8AllocateEPNS_30SizeClassAllocator32LocalCacheIS3_EEmm+0xbe>
  404ead:	48 83 c0 0f          	add    rax,0xf
  404eb1:	48 c1 e8 04          	shr    rax,0x4
  404eb5:	eb 51                	jmp    404f08 <_ZN11__sanitizer17CombinedAllocatorINS_20SizeClassAllocator32INS_4AP32EEENS_32LargeMmapAllocatorPtrArrayStaticEE8AllocateEPNS_30SizeClassAllocator32LocalCacheIS3_EEmm+0xe8>
  404eb7:	49 8d b8 c0 0d 04 00 	lea    rdi,[r8+0x40dc0]
  404ebe:	49 81 c0 08 10 08 00 	add    r8,0x81008
  404ec5:	4c 89 c6             	mov    rsi,r8
  404ec8:	4c 89 f9             	mov    rcx,r15
  404ecb:	e8 40 01 00 00       	call   405010 <_ZN11__sanitizer18LargeMmapAllocatorINS_20NoOpMapUnmapCallbackENS_32LargeMmapAllocatorPtrArrayStaticENS_21LocalAddressSpaceViewEE8AllocateEPNS_14AllocatorStatsEmm>
  404ed0:	48 89 c3             	mov    rbx,rax
  404ed3:	49 83 ff 09          	cmp    r15,0x9
  404ed7:	73 7c                	jae    404f55 <_ZN11__sanitizer17CombinedAllocatorINS_20SizeClassAllocator32INS_4AP32EEENS_32LargeMmapAllocatorPtrArrayStaticEE8AllocateEPNS_30SizeClassAllocator32LocalCacheIS3_EEmm+0x135>
  404ed9:	e9 84 00 00 00       	jmp    404f62 <_ZN11__sanitizer17CombinedAllocatorINS_20SizeClassAllocator32INS_4AP32EEENS_32LargeMmapAllocatorPtrArrayStaticEE8AllocateEPNS_30SizeClassAllocator32LocalCacheIS3_EEmm+0x142>
  404ede:	48 0f bd d0          	bsr    rdx,rax
  404ee2:	8d 4a fe             	lea    ecx,[rdx-0x2]
  404ee5:	48 89 c6             	mov    rsi,rax
  404ee8:	48 d3 ee             	shr    rsi,cl
  404eeb:	bf ff ff ff ff       	mov    edi,0xffffffff
  404ef0:	d3 e7                	shl    edi,cl
  404ef2:	83 e6 03             	and    esi,0x3
  404ef5:	f7 d7                	not    edi
  404ef7:	21 f8                	and    eax,edi
  404ef9:	83 f8 01             	cmp    eax,0x1
  404efc:	48 8d 04 96          	lea    rax,[rsi+rdx*4]
  404f00:	48 83 d8 ff          	sbb    rax,0xffffffffffffffff
  404f04:	48 83 c0 f0          	add    rax,0xfffffffffffffff0
  404f08:	48 85 c0             	test   rax,rax
  404f0b:	0f 84 95 00 00 00    	je     404fa6 <_ZN11__sanitizer17CombinedAllocatorINS_20SizeClassAllocator32INS_4AP32EEENS_32LargeMmapAllocatorPtrArrayStaticEE8AllocateEPNS_30SizeClassAllocator32LocalCacheIS3_EEmm+0x186>
  404f11:	48 83 f8 36          	cmp    rax,0x36
  404f15:	0f 83 a8 00 00 00    	jae    404fc3 <_ZN11__sanitizer17CombinedAllocatorINS_20SizeClassAllocator32INS_4AP32EEENS_32LargeMmapAllocatorPtrArrayStaticEE8AllocateEPNS_30SizeClassAllocator32LocalCacheIS3_EEmm+0x1a3>
  404f1b:	49 89 c4             	mov    r12,rax
  404f1e:	49 c1 e4 0a          	shl    r12,0xa
  404f22:	4b 8d 1c 26          	lea    rbx,[r14+r12*1]
  404f26:	4b 8b 0c 26          	mov    rcx,QWORD PTR [r14+r12*1]
  404f2a:	48 85 c9             	test   rcx,rcx
  404f2d:	74 42                	je     404f71 <_ZN11__sanitizer17CombinedAllocatorINS_20SizeClassAllocator32INS_4AP32EEENS_32LargeMmapAllocatorPtrArrayStaticEE8AllocateEPNS_30SizeClassAllocator32LocalCacheIS3_EEmm+0x151>
  404f2f:	48 8d 41 ff          	lea    rax,[rcx-0x1]
  404f33:	48 89 03             	mov    QWORD PTR [rbx],rax
  404f36:	48 8b 44 cb 10       	mov    rax,QWORD PTR [rbx+rcx*8+0x10]
  404f3b:	48 8b 5c cb 18       	mov    rbx,QWORD PTR [rbx+rcx*8+0x18]
  404f40:	0f 18 00             	prefetchnta BYTE PTR [rax]
  404f43:	4b 8b 44 26 10       	mov    rax,QWORD PTR [r14+r12*1+0x10]
  404f48:	49 01 86 10 d8 00 00 	add    QWORD PTR [r14+0xd810],rax
  404f4f:	49 83 ff 09          	cmp    r15,0x9
  404f53:	72 0d                	jb     404f62 <_ZN11__sanitizer17CombinedAllocatorINS_20SizeClassAllocator32INS_4AP32EEENS_32LargeMmapAllocatorPtrArrayStaticEE8AllocateEPNS_30SizeClassAllocator32LocalCacheIS3_EEmm+0x142>
  404f55:	49 83 c7 ff          	add    r15,0xffffffffffffffff
  404f59:	49 21 df             	and    r15,rbx
  404f5c:	0f 85 82 00 00 00    	jne    404fe4 <_ZN11__sanitizer17CombinedAllocatorINS_20SizeClassAllocator32INS_4AP32EEENS_32LargeMmapAllocatorPtrArrayStaticEE8AllocateEPNS_30SizeClassAllocator32LocalCacheIS3_EEmm+0x1c4>
  404f62:	48 89 d8             	mov    rax,rbx
  404f65:	48 83 c4 08          	add    rsp,0x8
  404f69:	5b                   	pop    rbx
  404f6a:	41 5c                	pop    r12
  404f6c:	41 5e                	pop    r14
  404f6e:	41 5f                	pop    r15
  404f70:	c3                   	ret    
  404f71:	4c 89 f7             	mov    rdi,r14
  404f74:	48 89 de             	mov    rsi,rbx
  404f77:	4c 89 c2             	mov    rdx,r8
  404f7a:	48 89 c1             	mov    rcx,rax
  404f7d:	e8 1e 03 00 00       	call   4052a0 <_ZN11__sanitizer30SizeClassAllocator32LocalCacheINS_20SizeClassAllocator32INS_4AP32EEEE6RefillEPNS4_8PerClassEPS3_m>
  404f82:	84 c0                	test   al,al
  404f84:	74 05                	je     404f8b <_ZN11__sanitizer17CombinedAllocatorINS_20SizeClassAllocator32INS_4AP32EEENS_32LargeMmapAllocatorPtrArrayStaticEE8AllocateEPNS_30SizeClassAllocator32LocalCacheIS3_EEmm+0x16b>
  404f86:	48 8b 0b             	mov    rcx,QWORD PTR [rbx]
  404f89:	eb a4                	jmp    404f2f <_ZN11__sanitizer17CombinedAllocatorINS_20SizeClassAllocator32INS_4AP32EEENS_32LargeMmapAllocatorPtrArrayStaticEE8AllocateEPNS_30SizeClassAllocator32LocalCacheIS3_EEmm+0x10f>
  404f8b:	31 db                	xor    ebx,ebx
  404f8d:	49 83 ff 09          	cmp    r15,0x9
  404f91:	73 c2                	jae    404f55 <_ZN11__sanitizer17CombinedAllocatorINS_20SizeClassAllocator32INS_4AP32EEENS_32LargeMmapAllocatorPtrArrayStaticEE8AllocateEPNS_30SizeClassAllocator32LocalCacheIS3_EEmm+0x135>
  404f93:	eb cd                	jmp    404f62 <_ZN11__sanitizer17CombinedAllocatorINS_20SizeClassAllocator32INS_4AP32EEENS_32LargeMmapAllocatorPtrArrayStaticEE8AllocateEPNS_30SizeClassAllocator32LocalCacheIS3_EEmm+0x142>
  404f95:	48 8d 3d ae 3e 02 00 	lea    rdi,[rip+0x23eae]        # 428e4a <_IO_stdin_used+0xe4a>
  404f9c:	e8 2f 43 00 00       	call   4092d0 <_ZN11__sanitizer8RawWriteEPKc>
  404fa1:	e8 ea fc 00 00       	call   414c90 <_ZN11__sanitizer3DieEv>
  404fa6:	48 8d 3d 54 38 02 00 	lea    rdi,[rip+0x23854]        # 428801 <_IO_stdin_used+0x801>
  404fad:	48 8d 15 c0 38 02 00 	lea    rdx,[rip+0x238c0]        # 428874 <_IO_stdin_used+0x874>
  404fb4:	be 99 00 00 00       	mov    esi,0x99
  404fb9:	31 c9                	xor    ecx,ecx
  404fbb:	45 31 c0             	xor    r8d,r8d
  404fbe:	e8 ad fd 00 00       	call   414d70 <_ZN11__sanitizer11CheckFailedEPKciS1_yy>
  404fc3:	48 8d 3d 37 38 02 00 	lea    rdi,[rip+0x23837]        # 428801 <_IO_stdin_used+0x801>
  404fca:	48 8d 15 bb 38 02 00 	lea    rdx,[rip+0x238bb]        # 42888c <_IO_stdin_used+0x88c>
  404fd1:	41 b8 36 00 00 00    	mov    r8d,0x36
  404fd7:	be 9a 00 00 00       	mov    esi,0x9a
  404fdc:	48 89 c1             	mov    rcx,rax
  404fdf:	e8 8c fd 00 00       	call   414d70 <_ZN11__sanitizer11CheckFailedEPKciS1_yy>
  404fe4:	48 8d 3d 6b 37 02 00 	lea    rdi,[rip+0x2376b]        # 428756 <_IO_stdin_used+0x756>
  404feb:	48 8d 15 d4 37 02 00 	lea    rdx,[rip+0x237d4]        # 4287c6 <_IO_stdin_used+0x7c6>
  404ff2:	be 49 00 00 00       	mov    esi,0x49
  404ff7:	4c 89 f9             	mov    rcx,r15
  404ffa:	45 31 c0             	xor    r8d,r8d
  404ffd:	e8 6e fd 00 00       	call   414d70 <_ZN11__sanitizer11CheckFailedEPKciS1_yy>
  405002:	66 2e 0f 1f 84 00 00 	nop    WORD PTR cs:[rax+rax*1+0x0]
  405009:	00 00 00 
  40500c:	0f 1f 40 00          	nop    DWORD PTR [rax+0x0]

0000000000405010 <_ZN11__sanitizer18LargeMmapAllocatorINS_20NoOpMapUnmapCallbackENS_32LargeMmapAllocatorPtrArrayStaticENS_21LocalAddressSpaceViewEE8AllocateEPNS_14AllocatorStatsEmm>:
  405010:	55                   	push   rbp
  405011:	41 57                	push   r15
  405013:	41 56                	push   r14
  405015:	41 55                	push   r13
  405017:	41 54                	push   r12
  405019:	53                   	push   rbx
  40501a:	50                   	push   rax
  40501b:	48 8d 69 ff          	lea    rbp,[rcx-0x1]
  40501f:	48 85 e9             	test   rcx,rbp
  405022:	0f 85 a0 01 00 00    	jne    4051c8 <_ZN11__sanitizer18LargeMmapAllocatorINS_20NoOpMapUnmapCallbackENS_32LargeMmapAllocatorPtrArrayStaticENS_21LocalAddressSpaceViewEE8AllocateEPNS_14AllocatorStatsEmm+0x1b8>
  405028:	49 89 cc             	mov    r12,rcx
  40502b:	49 89 fe             	mov    r14,rdi
  40502e:	48 8b 07             	mov    rax,QWORD PTR [rdi]
  405031:	48 8d 48 ff          	lea    rcx,[rax-0x1]
  405035:	48 85 c8             	test   rax,rcx
  405038:	0f 85 a2 01 00 00    	jne    4051e0 <_ZN11__sanitizer18LargeMmapAllocatorINS_20NoOpMapUnmapCallbackENS_32LargeMmapAllocatorPtrArrayStaticENS_21LocalAddressSpaceViewEE8AllocateEPNS_14AllocatorStatsEmm+0x1d0>
  40503e:	49 89 d5             	mov    r13,rdx
  405041:	48 8d 0c 02          	lea    rcx,[rdx+rax*1]
  405045:	48 83 c1 ff          	add    rcx,0xffffffffffffffff
  405049:	48 89 c2             	mov    rdx,rax
  40504c:	48 f7 da             	neg    rdx
  40504f:	48 21 ca             	and    rdx,rcx
  405052:	48 01 c2             	add    rdx,rax
  405055:	31 db                	xor    ebx,ebx
  405057:	4c 39 e0             	cmp    rax,r12
  40505a:	49 0f 42 dc          	cmovb  rbx,r12
  40505e:	48 01 d3             	add    rbx,rdx
  405061:	4c 39 eb             	cmp    rbx,r13
  405064:	73 26                	jae    40508c <_ZN11__sanitizer18LargeMmapAllocatorINS_20NoOpMapUnmapCallbackENS_32LargeMmapAllocatorPtrArrayStaticENS_21LocalAddressSpaceViewEE8AllocateEPNS_14AllocatorStatsEmm+0x7c>
  405066:	48 8d 05 bb 71 03 00 	lea    rax,[rip+0x371bb]        # 43c228 <_ZN11__sanitizer17SanitizerToolNameE>
  40506d:	48 8b 30             	mov    rsi,QWORD PTR [rax]
  405070:	48 8d 3d 4c 3b 02 00 	lea    rdi,[rip+0x23b4c]        # 428bc3 <_IO_stdin_used+0xbc3>
  405077:	45 31 f6             	xor    r14d,r14d
  40507a:	48 89 da             	mov    rdx,rbx
  40507d:	4c 89 e1             	mov    rcx,r12
  405080:	31 c0                	xor    eax,eax
  405082:	e8 d9 c4 00 00       	call   411560 <_ZN11__sanitizer6ReportEPKcz>
  405087:	e9 2a 01 00 00       	jmp    4051b6 <_ZN11__sanitizer18LargeMmapAllocatorINS_20NoOpMapUnmapCallbackENS_32LargeMmapAllocatorPtrArrayStaticENS_21LocalAddressSpaceViewEE8AllocateEPNS_14AllocatorStatsEmm+0x1a6>
  40508c:	49 89 f7             	mov    r15,rsi
  40508f:	48 8b 35 82 71 03 00 	mov    rsi,QWORD PTR [rip+0x37182]        # 43c218 <_ZN11__sanitizer22SecondaryAllocatorNameE>
  405096:	48 89 df             	mov    rdi,rbx
  405099:	e8 32 ae 00 00       	call   40fed0 <_ZN11__sanitizer21MmapOrDieOnFatalErrorEmPKc>
  40509e:	48 85 c0             	test   rax,rax
  4050a1:	0f 84 0c 01 00 00    	je     4051b3 <_ZN11__sanitizer18LargeMmapAllocatorINS_20NoOpMapUnmapCallbackENS_32LargeMmapAllocatorPtrArrayStaticENS_21LocalAddressSpaceViewEE8AllocateEPNS_14AllocatorStatsEmm+0x1a3>
  4050a7:	49 8b 16             	mov    rdx,QWORD PTR [r14]
  4050aa:	48 8d 4a ff          	lea    rcx,[rdx-0x1]
  4050ae:	48 85 c1             	test   rcx,rax
  4050b1:	0f 85 3a 01 00 00    	jne    4051f1 <_ZN11__sanitizer18LargeMmapAllocatorINS_20NoOpMapUnmapCallbackENS_32LargeMmapAllocatorPtrArrayStaticENS_21LocalAddressSpaceViewEE8AllocateEPNS_14AllocatorStatsEmm+0x1e1>
  4050b7:	48 8d 34 02          	lea    rsi,[rdx+rax*1]
  4050bb:	48 89 f7             	mov    rdi,rsi
  4050be:	48 21 ef             	and    rdi,rbp
  4050c1:	49 29 fc             	sub    r12,rdi
  4050c4:	48 85 ff             	test   rdi,rdi
  4050c7:	4c 0f 44 e7          	cmove  r12,rdi
  4050cb:	49 01 f4             	add    r12,rsi
  4050ce:	49 85 ec             	test   r12,rbp
  4050d1:	0f 85 2f 01 00 00    	jne    405206 <_ZN11__sanitizer18LargeMmapAllocatorINS_20NoOpMapUnmapCallbackENS_32LargeMmapAllocatorPtrArrayStaticENS_21LocalAddressSpaceViewEE8AllocateEPNS_14AllocatorStatsEmm+0x1f6>
  4050d7:	49 85 cc             	test   r12,rcx
  4050da:	0f 85 3b 01 00 00    	jne    40521b <_ZN11__sanitizer18LargeMmapAllocatorINS_20NoOpMapUnmapCallbackENS_32LargeMmapAllocatorPtrArrayStaticENS_21LocalAddressSpaceViewEE8AllocateEPNS_14AllocatorStatsEmm+0x20b>
  4050e0:	4b 8d 0c 2c          	lea    rcx,[r12+r13*1]
  4050e4:	48 39 c1             	cmp    rcx,rax
  4050e7:	0f 82 43 01 00 00    	jb     405230 <_ZN11__sanitizer18LargeMmapAllocatorINS_20NoOpMapUnmapCallbackENS_32LargeMmapAllocatorPtrArrayStaticENS_21LocalAddressSpaceViewEE8AllocateEPNS_14AllocatorStatsEmm+0x220>
  4050ed:	49 89 c0             	mov    r8,rax
  4050f0:	49 01 d8             	add    r8,rbx
  4050f3:	4c 39 c1             	cmp    rcx,r8
  4050f6:	0f 87 4f 01 00 00    	ja     40524b <_ZN11__sanitizer18LargeMmapAllocatorINS_20NoOpMapUnmapCallbackENS_32LargeMmapAllocatorPtrArrayStaticENS_21LocalAddressSpaceViewEE8AllocateEPNS_14AllocatorStatsEmm+0x23b>
  4050fc:	4c 89 e5             	mov    rbp,r12
  4050ff:	48 29 d5             	sub    rbp,rdx
  405102:	4c 89 6d 10          	mov    QWORD PTR [rbp+0x10],r13
  405106:	48 89 45 00          	mov    QWORD PTR [rbp+0x0],rax
  40510a:	48 89 5d 08          	mov    QWORD PTR [rbp+0x8],rbx
  40510e:	48 85 db             	test   rbx,rbx
  405111:	0f 84 4c 01 00 00    	je     405263 <_ZN11__sanitizer18LargeMmapAllocatorINS_20NoOpMapUnmapCallbackENS_32LargeMmapAllocatorPtrArrayStaticENS_21LocalAddressSpaceViewEE8AllocateEPNS_14AllocatorStatsEmm+0x253>
  405117:	b0 01                	mov    al,0x1
  405119:	41 86 86 40 02 04 00 	xchg   BYTE PTR [r14+0x40240],al
  405120:	84 c0                	test   al,al
  405122:	74 0c                	je     405130 <_ZN11__sanitizer18LargeMmapAllocatorINS_20NoOpMapUnmapCallbackENS_32LargeMmapAllocatorPtrArrayStaticENS_21LocalAddressSpaceViewEE8AllocateEPNS_14AllocatorStatsEmm+0x120>
  405124:	49 8d be 40 02 04 00 	lea    rdi,[r14+0x40240]
  40512b:	e8 d0 15 00 00       	call   406700 <_ZN11__sanitizer15StaticSpinMutex8LockSlowEv>
  405130:	49 8b 8e 10 00 04 00 	mov    rcx,QWORD PTR [r14+0x40010]
  405137:	48 81 f9 00 80 00 00 	cmp    rcx,0x8000
  40513e:	0f 83 3c 01 00 00    	jae    405280 <_ZN11__sanitizer18LargeMmapAllocatorINS_20NoOpMapUnmapCallbackENS_32LargeMmapAllocatorPtrArrayStaticENS_21LocalAddressSpaceViewEE8AllocateEPNS_14AllocatorStatsEmm+0x270>
  405144:	48 0f bd c3          	bsr    rax,rbx
  405148:	48 8d 51 01          	lea    rdx,[rcx+0x1]
  40514c:	49 89 96 10 00 04 00 	mov    QWORD PTR [r14+0x40010],rdx
  405153:	48 89 4d 18          	mov    QWORD PTR [rbp+0x18],rcx
  405157:	49 8b 56 08          	mov    rdx,QWORD PTR [r14+0x8]
  40515b:	48 89 2c ca          	mov    QWORD PTR [rdx+rcx*8],rbp
  40515f:	41 c6 86 18 00 04 00 	mov    BYTE PTR [r14+0x40018],0x0
  405166:	00 
  405167:	49 83 86 20 00 04 00 	add    QWORD PTR [r14+0x40020],0x1
  40516e:	01 
  40516f:	49 8b 8e 30 00 04 00 	mov    rcx,QWORD PTR [r14+0x40030]
  405176:	48 01 d9             	add    rcx,rbx
  405179:	49 89 8e 30 00 04 00 	mov    QWORD PTR [r14+0x40030],rcx
  405180:	49 8b 96 38 00 04 00 	mov    rdx,QWORD PTR [r14+0x40038]
  405187:	48 39 ca             	cmp    rdx,rcx
  40518a:	48 0f 47 ca          	cmova  rcx,rdx
  40518e:	49 89 8e 38 00 04 00 	mov    QWORD PTR [r14+0x40038],rcx
  405195:	49 83 84 c6 40 00 04 	add    QWORD PTR [r14+rax*8+0x40040],0x1
  40519c:	00 01 
  40519e:	49 01 5f 10          	add    QWORD PTR [r15+0x10],rbx
  4051a2:	49 01 5f 18          	add    QWORD PTR [r15+0x18],rbx
  4051a6:	41 c6 86 40 02 04 00 	mov    BYTE PTR [r14+0x40240],0x0
  4051ad:	00 
  4051ae:	4d 89 e6             	mov    r14,r12
  4051b1:	eb 03                	jmp    4051b6 <_ZN11__sanitizer18LargeMmapAllocatorINS_20NoOpMapUnmapCallbackENS_32LargeMmapAllocatorPtrArrayStaticENS_21LocalAddressSpaceViewEE8AllocateEPNS_14AllocatorStatsEmm+0x1a6>
  4051b3:	45 31 f6             	xor    r14d,r14d
  4051b6:	4c 89 f0             	mov    rax,r14
  4051b9:	48 83 c4 08          	add    rsp,0x8
  4051bd:	5b                   	pop    rbx
  4051be:	41 5c                	pop    r12
  4051c0:	41 5d                	pop    r13
  4051c2:	41 5e                	pop    r14
  4051c4:	41 5f                	pop    r15
  4051c6:	5d                   	pop    rbp
  4051c7:	c3                   	ret    
  4051c8:	48 8d 3d 83 39 02 00 	lea    rdi,[rip+0x23983]        # 428b52 <_IO_stdin_used+0xb52>
  4051cf:	48 8d 15 a9 34 02 00 	lea    rdx,[rip+0x234a9]        # 42867f <_IO_stdin_used+0x67f>
  4051d6:	be 56 00 00 00       	mov    esi,0x56
  4051db:	e9 96 00 00 00       	jmp    405276 <_ZN11__sanitizer18LargeMmapAllocatorINS_20NoOpMapUnmapCallbackENS_32LargeMmapAllocatorPtrArrayStaticENS_21LocalAddressSpaceViewEE8AllocateEPNS_14AllocatorStatsEmm+0x266>
  4051e0:	48 8d 3d 63 3c 02 00 	lea    rdi,[rip+0x23c63]        # 428e4a <_IO_stdin_used+0xe4a>
  4051e7:	e8 e4 40 00 00       	call   4092d0 <_ZN11__sanitizer8RawWriteEPKc>
  4051ec:	e8 9f fa 00 00       	call   414c90 <_ZN11__sanitizer3DieEv>
  4051f1:	48 8d 3d 5a 39 02 00 	lea    rdi,[rip+0x2395a]        # 428b52 <_IO_stdin_used+0xb52>
  4051f8:	48 8d 15 25 3a 02 00 	lea    rdx,[rip+0x23a25]        # 428c24 <_IO_stdin_used+0xc24>
  4051ff:	be 65 00 00 00       	mov    esi,0x65
  405204:	eb 70                	jmp    405276 <_ZN11__sanitizer18LargeMmapAllocatorINS_20NoOpMapUnmapCallbackENS_32LargeMmapAllocatorPtrArrayStaticENS_21LocalAddressSpaceViewEE8AllocateEPNS_14AllocatorStatsEmm+0x266>
  405206:	48 8d 3d 45 39 02 00 	lea    rdi,[rip+0x23945]        # 428b52 <_IO_stdin_used+0xb52>
  40520d:	48 8d 15 3a 3a 02 00 	lea    rdx,[rip+0x23a3a]        # 428c4e <_IO_stdin_used+0xc4e>
  405214:	be 6b 00 00 00       	mov    esi,0x6b
  405219:	eb 5b                	jmp    405276 <_ZN11__sanitizer18LargeMmapAllocatorINS_20NoOpMapUnmapCallbackENS_32LargeMmapAllocatorPtrArrayStaticENS_21LocalAddressSpaceViewEE8AllocateEPNS_14AllocatorStatsEmm+0x266>
  40521b:	48 8d 3d 30 39 02 00 	lea    rdi,[rip+0x23930]        # 428b52 <_IO_stdin_used+0xb52>
  405222:	48 8d 15 4a 3a 02 00 	lea    rdx,[rip+0x23a4a]        # 428c73 <_IO_stdin_used+0xc73>
  405229:	be 6c 00 00 00       	mov    esi,0x6c
  40522e:	eb 46                	jmp    405276 <_ZN11__sanitizer18LargeMmapAllocatorINS_20NoOpMapUnmapCallbackENS_32LargeMmapAllocatorPtrArrayStaticENS_21LocalAddressSpaceViewEE8AllocateEPNS_14AllocatorStatsEmm+0x266>
  405230:	48 8d 3d 1b 39 02 00 	lea    rdi,[rip+0x2391b]        # 428b52 <_IO_stdin_used+0xb52>
  405237:	48 8d 15 5b 3a 02 00 	lea    rdx,[rip+0x23a5b]        # 428c99 <_IO_stdin_used+0xc99>
  40523e:	be 6d 00 00 00       	mov    esi,0x6d
  405243:	49 89 c0             	mov    r8,rax
  405246:	e8 25 fb 00 00       	call   414d70 <_ZN11__sanitizer11CheckFailedEPKciS1_yy>
  40524b:	48 8d 3d 00 39 02 00 	lea    rdi,[rip+0x23900]        # 428b52 <_IO_stdin_used+0xb52>
  405252:	48 8d 15 5e 3a 02 00 	lea    rdx,[rip+0x23a5e]        # 428cb7 <_IO_stdin_used+0xcb7>
  405259:	be 6e 00 00 00       	mov    esi,0x6e
  40525e:	e8 0d fb 00 00       	call   414d70 <_ZN11__sanitizer11CheckFailedEPKciS1_yy>
  405263:	48 8d 3d 58 36 02 00 	lea    rdi,[rip+0x23658]        # 4288c2 <_IO_stdin_used+0x8c2>
  40526a:	48 8d 15 b5 36 02 00 	lea    rdx,[rip+0x236b5]        # 428926 <_IO_stdin_used+0x926>
  405271:	be 79 01 00 00       	mov    esi,0x179
  405276:	31 c9                	xor    ecx,ecx
  405278:	45 31 c0             	xor    r8d,r8d
  40527b:	e8 f0 fa 00 00       	call   414d70 <_ZN11__sanitizer11CheckFailedEPKciS1_yy>
  405280:	48 8d 3d cb 38 02 00 	lea    rdi,[rip+0x238cb]        # 428b52 <_IO_stdin_used+0xb52>
  405287:	48 8d 15 6b 3a 02 00 	lea    rdx,[rip+0x23a6b]        # 428cf9 <_IO_stdin_used+0xcf9>
  40528e:	41 b8 00 80 00 00    	mov    r8d,0x8000
  405294:	be 16 00 00 00       	mov    esi,0x16
  405299:	e8 d2 fa 00 00       	call   414d70 <_ZN11__sanitizer11CheckFailedEPKciS1_yy>
  40529e:	66 90                	xchg   ax,ax

00000000004052a0 <_ZN11__sanitizer30SizeClassAllocator32LocalCacheINS_20SizeClassAllocator32INS_4AP32EEEE6RefillEPNS4_8PerClassEPS3_m>:
  4052a0:	41 57                	push   r15
  4052a2:	41 56                	push   r14
  4052a4:	41 54                	push   r12
  4052a6:	53                   	push   rbx
  4052a7:	50                   	push   rax
  4052a8:	49 89 cc             	mov    r12,rcx
  4052ab:	49 89 d6             	mov    r14,rdx
  4052ae:	48 89 f3             	mov    rbx,rsi
  4052b1:	49 89 ff             	mov    r15,rdi
  4052b4:	48 83 7e 08 00       	cmp    QWORD PTR [rsi+0x8],0x0
  4052b9:	0f 84 f6 01 00 00    	je     4054b5 <_ZN11__sanitizer30SizeClassAllocator32LocalCacheINS_20SizeClassAllocator32INS_4AP32EEEE6RefillEPNS4_8PerClassEPS3_m+0x215>
  4052bf:	49 8d b7 00 d8 00 00 	lea    rsi,[r15+0xd800]
  4052c6:	4c 89 f7             	mov    rdi,r14
  4052c9:	4c 89 fa             	mov    rdx,r15
  4052cc:	4c 89 e1             	mov    rcx,r12
  4052cf:	e8 dc 02 00 00       	call   4055b0 <_ZN11__sanitizer20SizeClassAllocator32INS_4AP32EE13AllocateBatchEPNS_14AllocatorStatsEPNS_30SizeClassAllocator32LocalCacheIS2_EEm>
  4052d4:	48 85 c0             	test   rax,rax
  4052d7:	0f 84 aa 02 00 00    	je     405587 <_ZN11__sanitizer30SizeClassAllocator32LocalCacheINS_20SizeClassAllocator32INS_4AP32EEEE6RefillEPNS4_8PerClassEPS3_m+0x2e7>
  4052dd:	4c 8b 40 08          	mov    r8,QWORD PTR [rax+0x8]
  4052e1:	4d 85 c0             	test   r8,r8
  4052e4:	0f 84 a4 02 00 00    	je     40558e <_ZN11__sanitizer30SizeClassAllocator32LocalCacheINS_20SizeClassAllocator32INS_4AP32EEEE6RefillEPNS4_8PerClassEPS3_m+0x2ee>
  4052ea:	49 83 f8 03          	cmp    r8,0x3
  4052ee:	76 2d                	jbe    40531d <_ZN11__sanitizer30SizeClassAllocator32LocalCacheINS_20SizeClassAllocator32INS_4AP32EEEE6RefillEPNS4_8PerClassEPS3_m+0x7d>
  4052f0:	48 8d 4b 20          	lea    rcx,[rbx+0x20]
  4052f4:	4a 8d 14 c0          	lea    rdx,[rax+r8*8]
  4052f8:	48 83 c2 10          	add    rdx,0x10
  4052fc:	48 39 ca             	cmp    rdx,rcx
  4052ff:	0f 86 b9 00 00 00    	jbe    4053be <_ZN11__sanitizer30SizeClassAllocator32LocalCacheINS_20SizeClassAllocator32INS_4AP32EEEE6RefillEPNS4_8PerClassEPS3_m+0x11e>
  405305:	4a 8d 0c c3          	lea    rcx,[rbx+r8*8]
  405309:	48 83 c1 20          	add    rcx,0x20
  40530d:	48 89 c2             	mov    rdx,rax
  405310:	48 83 c2 10          	add    rdx,0x10
  405314:	48 39 d1             	cmp    rcx,rdx
  405317:	0f 86 a1 00 00 00    	jbe    4053be <_ZN11__sanitizer30SizeClassAllocator32LocalCacheINS_20SizeClassAllocator32INS_4AP32EEEE6RefillEPNS4_8PerClassEPS3_m+0x11e>
  40531d:	31 d2                	xor    edx,edx
  40531f:	44 89 c6             	mov    esi,r8d
  405322:	29 d6                	sub    esi,edx
  405324:	48 89 d1             	mov    rcx,rdx
  405327:	48 f7 d1             	not    rcx
  40532a:	4c 01 c1             	add    rcx,r8
  40532d:	48 83 e6 07          	and    rsi,0x7
  405331:	74 21                	je     405354 <_ZN11__sanitizer30SizeClassAllocator32LocalCacheINS_20SizeClassAllocator32INS_4AP32EEEE6RefillEPNS4_8PerClassEPS3_m+0xb4>
  405333:	66 2e 0f 1f 84 00 00 	nop    WORD PTR cs:[rax+rax*1+0x0]
  40533a:	00 00 00 
  40533d:	0f 1f 00             	nop    DWORD PTR [rax]
  405340:	48 8b 7c d0 10       	mov    rdi,QWORD PTR [rax+rdx*8+0x10]
  405345:	48 89 7c d3 20       	mov    QWORD PTR [rbx+rdx*8+0x20],rdi
  40534a:	48 83 c2 01          	add    rdx,0x1
  40534e:	48 83 c6 ff          	add    rsi,0xffffffffffffffff
  405352:	75 ec                	jne    405340 <_ZN11__sanitizer30SizeClassAllocator32LocalCacheINS_20SizeClassAllocator32INS_4AP32EEEE6RefillEPNS4_8PerClassEPS3_m+0xa0>
  405354:	48 83 f9 07          	cmp    rcx,0x7
  405358:	0f 82 28 01 00 00    	jb     405486 <_ZN11__sanitizer30SizeClassAllocator32LocalCacheINS_20SizeClassAllocator32INS_4AP32EEEE6RefillEPNS4_8PerClassEPS3_m+0x1e6>
  40535e:	66 90                	xchg   ax,ax
  405360:	48 8b 4c d0 10       	mov    rcx,QWORD PTR [rax+rdx*8+0x10]
  405365:	48 89 4c d3 20       	mov    QWORD PTR [rbx+rdx*8+0x20],rcx
  40536a:	48 8b 4c d0 18       	mov    rcx,QWORD PTR [rax+rdx*8+0x18]
  40536f:	48 89 4c d3 28       	mov    QWORD PTR [rbx+rdx*8+0x28],rcx
  405374:	48 8b 4c d0 20       	mov    rcx,QWORD PTR [rax+rdx*8+0x20]
  405379:	48 89 4c d3 30       	mov    QWORD PTR [rbx+rdx*8+0x30],rcx
  40537e:	48 8b 4c d0 28       	mov    rcx,QWORD PTR [rax+rdx*8+0x28]
  405383:	48 89 4c d3 38       	mov    QWORD PTR [rbx+rdx*8+0x38],rcx
  405388:	48 8b 4c d0 30       	mov    rcx,QWORD PTR [rax+rdx*8+0x30]
  40538d:	48 89 4c d3 40       	mov    QWORD PTR [rbx+rdx*8+0x40],rcx
  405392:	48 8b 4c d0 38       	mov    rcx,QWORD PTR [rax+rdx*8+0x38]
  405397:	48 89 4c d3 48       	mov    QWORD PTR [rbx+rdx*8+0x48],rcx
  40539c:	48 8b 4c d0 40       	mov    rcx,QWORD PTR [rax+rdx*8+0x40]
  4053a1:	48 89 4c d3 50       	mov    QWORD PTR [rbx+rdx*8+0x50],rcx
  4053a6:	48 8b 4c d0 48       	mov    rcx,QWORD PTR [rax+rdx*8+0x48]
  4053ab:	48 89 4c d3 58       	mov    QWORD PTR [rbx+rdx*8+0x58],rcx
  4053b0:	48 83 c2 08          	add    rdx,0x8
  4053b4:	49 39 d0             	cmp    r8,rdx
  4053b7:	75 a7                	jne    405360 <_ZN11__sanitizer30SizeClassAllocator32LocalCacheINS_20SizeClassAllocator32INS_4AP32EEEE6RefillEPNS4_8PerClassEPS3_m+0xc0>
  4053b9:	e9 c8 00 00 00       	jmp    405486 <_ZN11__sanitizer30SizeClassAllocator32LocalCacheINS_20SizeClassAllocator32INS_4AP32EEEE6RefillEPNS4_8PerClassEPS3_m+0x1e6>
  4053be:	4c 89 c2             	mov    rdx,r8
  4053c1:	48 83 e2 fc          	and    rdx,0xfffffffffffffffc
  4053c5:	48 8d 7a fc          	lea    rdi,[rdx-0x4]
  4053c9:	48 89 fe             	mov    rsi,rdi
  4053cc:	48 c1 ee 02          	shr    rsi,0x2
  4053d0:	48 83 c6 01          	add    rsi,0x1
  4053d4:	89 f1                	mov    ecx,esi
  4053d6:	83 e1 03             	and    ecx,0x3
  4053d9:	48 83 ff 0c          	cmp    rdi,0xc
  4053dd:	73 04                	jae    4053e3 <_ZN11__sanitizer30SizeClassAllocator32LocalCacheINS_20SizeClassAllocator32INS_4AP32EEEE6RefillEPNS4_8PerClassEPS3_m+0x143>
  4053df:	31 ff                	xor    edi,edi
  4053e1:	eb 70                	jmp    405453 <_ZN11__sanitizer30SizeClassAllocator32LocalCacheINS_20SizeClassAllocator32INS_4AP32EEEE6RefillEPNS4_8PerClassEPS3_m+0x1b3>
  4053e3:	48 29 ce             	sub    rsi,rcx
  4053e6:	31 ff                	xor    edi,edi
  4053e8:	0f 1f 84 00 00 00 00 	nop    DWORD PTR [rax+rax*1+0x0]
  4053ef:	00 
  4053f0:	0f 10 44 f8 10       	movups xmm0,XMMWORD PTR [rax+rdi*8+0x10]
  4053f5:	0f 10 4c f8 20       	movups xmm1,XMMWORD PTR [rax+rdi*8+0x20]
  4053fa:	0f 11 44 fb 20       	movups XMMWORD PTR [rbx+rdi*8+0x20],xmm0
  4053ff:	0f 11 4c fb 30       	movups XMMWORD PTR [rbx+rdi*8+0x30],xmm1
  405404:	0f 10 44 f8 30       	movups xmm0,XMMWORD PTR [rax+rdi*8+0x30]
  405409:	0f 10 4c f8 40       	movups xmm1,XMMWORD PTR [rax+rdi*8+0x40]
  40540e:	0f 11 44 fb 40       	movups XMMWORD PTR [rbx+rdi*8+0x40],xmm0
  405413:	0f 11 4c fb 50       	movups XMMWORD PTR [rbx+rdi*8+0x50],xmm1
  405418:	0f 10 44 f8 50       	movups xmm0,XMMWORD PTR [rax+rdi*8+0x50]
  40541d:	0f 10 4c f8 60       	movups xmm1,XMMWORD PTR [rax+rdi*8+0x60]
  405422:	0f 11 44 fb 60       	movups XMMWORD PTR [rbx+rdi*8+0x60],xmm0
  405427:	0f 11 4c fb 70       	movups XMMWORD PTR [rbx+rdi*8+0x70],xmm1
  40542c:	0f 10 44 f8 70       	movups xmm0,XMMWORD PTR [rax+rdi*8+0x70]
  405431:	0f 10 8c f8 80 00 00 	movups xmm1,XMMWORD PTR [rax+rdi*8+0x80]
  405438:	00 
  405439:	0f 11 84 fb 80 00 00 	movups XMMWORD PTR [rbx+rdi*8+0x80],xmm0
  405440:	00 
  405441:	0f 11 8c fb 90 00 00 	movups XMMWORD PTR [rbx+rdi*8+0x90],xmm1
  405448:	00 
  405449:	48 83 c7 10          	add    rdi,0x10
  40544d:	48 83 c6 fc          	add    rsi,0xfffffffffffffffc
  405451:	75 9d                	jne    4053f0 <_ZN11__sanitizer30SizeClassAllocator32LocalCacheINS_20SizeClassAllocator32INS_4AP32EEEE6RefillEPNS4_8PerClassEPS3_m+0x150>
  405453:	48 85 c9             	test   rcx,rcx
  405456:	74 25                	je     40547d <_ZN11__sanitizer30SizeClassAllocator32LocalCacheINS_20SizeClassAllocator32INS_4AP32EEEE6RefillEPNS4_8PerClassEPS3_m+0x1dd>
  405458:	48 c1 e7 03          	shl    rdi,0x3
  40545c:	48 f7 d9             	neg    rcx
  40545f:	90                   	nop
  405460:	0f 10 44 38 10       	movups xmm0,XMMWORD PTR [rax+rdi*1+0x10]
  405465:	0f 10 4c 38 20       	movups xmm1,XMMWORD PTR [rax+rdi*1+0x20]
  40546a:	0f 11 44 3b 20       	movups XMMWORD PTR [rbx+rdi*1+0x20],xmm0
  40546f:	0f 11 4c 3b 30       	movups XMMWORD PTR [rbx+rdi*1+0x30],xmm1
  405474:	48 83 c7 20          	add    rdi,0x20
  405478:	48 ff c1             	inc    rcx
  40547b:	75 e3                	jne    405460 <_ZN11__sanitizer30SizeClassAllocator32LocalCacheINS_20SizeClassAllocator32INS_4AP32EEEE6RefillEPNS4_8PerClassEPS3_m+0x1c0>
  40547d:	49 39 d0             	cmp    r8,rdx
  405480:	0f 85 99 fe ff ff    	jne    40531f <_ZN11__sanitizer30SizeClassAllocator32LocalCacheINS_20SizeClassAllocator32INS_4AP32EEEE6RefillEPNS4_8PerClassEPS3_m+0x7f>
  405486:	4c 89 03             	mov    QWORD PTR [rbx],r8
  405489:	49 c1 e4 0a          	shl    r12,0xa
  40548d:	4b 8b 54 27 18       	mov    rdx,QWORD PTR [r15+r12*1+0x18]
  405492:	b3 01                	mov    bl,0x1
  405494:	48 85 d2             	test   rdx,rdx
  405497:	74 0e                	je     4054a7 <_ZN11__sanitizer30SizeClassAllocator32LocalCacheINS_20SizeClassAllocator32INS_4AP32EEEE6RefillEPNS4_8PerClassEPS3_m+0x207>
  405499:	4c 89 ff             	mov    rdi,r15
  40549c:	4c 89 f6             	mov    rsi,r14
  40549f:	48 89 c1             	mov    rcx,rax
  4054a2:	e8 29 07 00 00       	call   405bd0 <_ZN11__sanitizer30SizeClassAllocator32LocalCacheINS_20SizeClassAllocator32INS_4AP32EEEE10DeallocateEPS3_mPv>
  4054a7:	89 d8                	mov    eax,ebx
  4054a9:	48 83 c4 08          	add    rsp,0x8
  4054ad:	5b                   	pop    rbx
  4054ae:	41 5c                	pop    r12
  4054b0:	41 5e                	pop    r14
  4054b2:	41 5f                	pop    r15
  4054b4:	c3                   	ret    
  4054b5:	49 8d b7 18 04 00 00 	lea    rsi,[r15+0x418]
  4054bc:	41 b8 10 00 00 00    	mov    r8d,0x10
  4054c2:	48 c7 c7 f1 ff ff ff 	mov    rdi,0xfffffffffffffff1
  4054c9:	eb 1c                	jmp    4054e7 <_ZN11__sanitizer30SizeClassAllocator32LocalCacheINS_20SizeClassAllocator32INS_4AP32EEEE6RefillEPNS4_8PerClassEPS3_m+0x247>
  4054cb:	48 89 06             	mov    QWORD PTR [rsi],rax
  4054ce:	49 83 c0 10          	add    r8,0x10
  4054d2:	48 83 c7 01          	add    rdi,0x1
  4054d6:	48 81 c6 00 04 00 00 	add    rsi,0x400
  4054dd:	48 83 ff 26          	cmp    rdi,0x26
  4054e1:	0f 84 d8 fd ff ff    	je     4052bf <_ZN11__sanitizer30SizeClassAllocator32LocalCacheINS_20SizeClassAllocator32INS_4AP32EEEE6RefillEPNS4_8PerClassEPS3_m+0x1f>
  4054e7:	b9 00 02 00 00       	mov    ecx,0x200
  4054ec:	48 83 ff 25          	cmp    rdi,0x25
  4054f0:	74 2f                	je     405521 <_ZN11__sanitizer30SizeClassAllocator32LocalCacheINS_20SizeClassAllocator32INS_4AP32EEEE6RefillEPNS4_8PerClassEPS3_m+0x281>
  4054f2:	48 8d 47 10          	lea    rax,[rdi+0x10]
  4054f6:	4c 89 c1             	mov    rcx,r8
  4054f9:	48 83 f8 11          	cmp    rax,0x11
  4054fd:	72 22                	jb     405521 <_ZN11__sanitizer30SizeClassAllocator32LocalCacheINS_20SizeClassAllocator32INS_4AP32EEEE6RefillEPNS4_8PerClassEPS3_m+0x281>
  4054ff:	48 89 f9             	mov    rcx,rdi
  405502:	48 c1 e9 02          	shr    rcx,0x2
  405506:	b8 00 01 00 00       	mov    eax,0x100
  40550b:	48 d3 e0             	shl    rax,cl
  40550e:	48 89 c2             	mov    rdx,rax
  405511:	48 c1 ea 02          	shr    rdx,0x2
  405515:	89 f9                	mov    ecx,edi
  405517:	83 e1 03             	and    ecx,0x3
  40551a:	48 0f af ca          	imul   rcx,rdx
  40551e:	48 01 c1             	add    rcx,rax
  405521:	b8 00 40 00 00       	mov    eax,0x4000
  405526:	31 d2                	xor    edx,edx
  405528:	f7 f1                	div    ecx
  40552a:	83 f8 40             	cmp    eax,0x40
  40552d:	73 3e                	jae    40556d <_ZN11__sanitizer30SizeClassAllocator32LocalCacheINS_20SizeClassAllocator32INS_4AP32EEEE6RefillEPNS4_8PerClassEPS3_m+0x2cd>
  40552f:	ba 01 00 00 00       	mov    edx,0x1
  405534:	48 85 c0             	test   rax,rax
  405537:	75 43                	jne    40557c <_ZN11__sanitizer30SizeClassAllocator32LocalCacheINS_20SizeClassAllocator32INS_4AP32EEEE6RefillEPNS4_8PerClassEPS3_m+0x2dc>
  405539:	48 83 fa 3e          	cmp    rdx,0x3e
  40553d:	72 05                	jb     405544 <_ZN11__sanitizer30SizeClassAllocator32LocalCacheINS_20SizeClassAllocator32INS_4AP32EEEE6RefillEPNS4_8PerClassEPS3_m+0x2a4>
  40553f:	ba 3e 00 00 00       	mov    edx,0x3e
  405544:	48 8d 04 12          	lea    rax,[rdx+rdx*1]
  405548:	48 89 46 f0          	mov    QWORD PTR [rsi-0x10],rax
  40554c:	48 89 4e f8          	mov    QWORD PTR [rsi-0x8],rcx
  405550:	48 8d 14 d5 10 00 00 	lea    rdx,[rdx*8+0x10]
  405557:	00 
  405558:	b8 14 00 00 00       	mov    eax,0x14
  40555d:	48 39 d1             	cmp    rcx,rdx
  405560:	0f 82 65 ff ff ff    	jb     4054cb <_ZN11__sanitizer30SizeClassAllocator32LocalCacheINS_20SizeClassAllocator32INS_4AP32EEEE6RefillEPNS4_8PerClassEPS3_m+0x22b>
  405566:	31 c0                	xor    eax,eax
  405568:	e9 5e ff ff ff       	jmp    4054cb <_ZN11__sanitizer30SizeClassAllocator32LocalCacheINS_20SizeClassAllocator32INS_4AP32EEEE6RefillEPNS4_8PerClassEPS3_m+0x22b>
  40556d:	b8 40 00 00 00       	mov    eax,0x40
  405572:	ba 01 00 00 00       	mov    edx,0x1
  405577:	48 85 c0             	test   rax,rax
  40557a:	74 bd                	je     405539 <_ZN11__sanitizer30SizeClassAllocator32LocalCacheINS_20SizeClassAllocator32INS_4AP32EEEE6RefillEPNS4_8PerClassEPS3_m+0x299>
  40557c:	48 89 c2             	mov    rdx,rax
  40557f:	48 83 fa 3e          	cmp    rdx,0x3e
  405583:	73 ba                	jae    40553f <_ZN11__sanitizer30SizeClassAllocator32LocalCacheINS_20SizeClassAllocator32INS_4AP32EEEE6RefillEPNS4_8PerClassEPS3_m+0x29f>
  405585:	eb bd                	jmp    405544 <_ZN11__sanitizer30SizeClassAllocator32LocalCacheINS_20SizeClassAllocator32INS_4AP32EEEE6RefillEPNS4_8PerClassEPS3_m+0x2a4>
  405587:	31 db                	xor    ebx,ebx
  405589:	e9 19 ff ff ff       	jmp    4054a7 <_ZN11__sanitizer30SizeClassAllocator32LocalCacheINS_20SizeClassAllocator32INS_4AP32EEEE6RefillEPNS4_8PerClassEPS3_m+0x207>
  40558e:	48 8d 3d 6c 32 02 00 	lea    rdi,[rip+0x2326c]        # 428801 <_IO_stdin_used+0x801>
  405595:	48 8d 15 0f 33 02 00 	lea    rdx,[rip+0x2330f]        # 4288ab <_IO_stdin_used+0x8ab>
  40559c:	be f0 00 00 00       	mov    esi,0xf0
  4055a1:	31 c9                	xor    ecx,ecx
  4055a3:	45 31 c0             	xor    r8d,r8d
  4055a6:	e8 c5 f7 00 00       	call   414d70 <_ZN11__sanitizer11CheckFailedEPKciS1_yy>
  4055ab:	0f 1f 44 00 00       	nop    DWORD PTR [rax+rax*1+0x0]

00000000004055b0 <_ZN11__sanitizer20SizeClassAllocator32INS_4AP32EE13AllocateBatchEPNS_14AllocatorStatsEPNS_30SizeClassAllocator32LocalCacheIS2_EEm>:
  4055b0:	55                   	push   rbp
  4055b1:	41 57                	push   r15
  4055b3:	41 56                	push   r14
  4055b5:	41 55                	push   r13
  4055b7:	41 54                	push   r12
  4055b9:	53                   	push   rbx
  4055ba:	50                   	push   rax
  4055bb:	49 89 cf             	mov    r15,rcx
  4055be:	49 89 f5             	mov    r13,rsi
  4055c1:	48 89 fb             	mov    rbx,rdi
  4055c4:	48 89 cd             	mov    rbp,rcx
  4055c7:	48 c1 e5 06          	shl    rbp,0x6
  4055cb:	4c 8d 34 2f          	lea    r14,[rdi+rbp*1]
  4055cf:	49 81 c6 40 00 04 00 	add    r14,0x40040
  4055d6:	b0 01                	mov    al,0x1
  4055d8:	86 84 2f 40 00 04 00 	xchg   BYTE PTR [rdi+rbp*1+0x40040],al
  4055df:	84 c0                	test   al,al
  4055e1:	74 0e                	je     4055f1 <_ZN11__sanitizer20SizeClassAllocator32INS_4AP32EE13AllocateBatchEPNS_14AllocatorStatsEPNS_30SizeClassAllocator32LocalCacheIS2_EEm+0x41>
  4055e3:	4c 89 f7             	mov    rdi,r14
  4055e6:	49 89 d4             	mov    r12,rdx
  4055e9:	e8 12 11 00 00       	call   406700 <_ZN11__sanitizer15StaticSpinMutex8LockSlowEv>
  4055ee:	4c 89 e2             	mov    rdx,r12
  4055f1:	4c 8d 24 2b          	lea    r12,[rbx+rbp*1]
  4055f5:	49 81 c4 48 00 04 00 	add    r12,0x40048
  4055fc:	48 8b 8c 2b 48 00 04 	mov    rcx,QWORD PTR [rbx+rbp*1+0x40048]
  405603:	00 
  405604:	48 85 c9             	test   rcx,rcx
  405607:	75 1e                	jne    405627 <_ZN11__sanitizer20SizeClassAllocator32INS_4AP32EE13AllocateBatchEPNS_14AllocatorStatsEPNS_30SizeClassAllocator32LocalCacheIS2_EEm+0x77>
  405609:	48 89 df             	mov    rdi,rbx
  40560c:	4c 89 ee             	mov    rsi,r13
  40560f:	4c 89 f1             	mov    rcx,r14
  405612:	4d 89 f8             	mov    r8,r15
  405615:	e8 76 00 00 00       	call   405690 <_ZN11__sanitizer20SizeClassAllocator32INS_4AP32EE16PopulateFreeListEPNS_14AllocatorStatsEPNS_30SizeClassAllocator32LocalCacheIS2_EEPNS2_13SizeClassInfoEm>
  40561a:	84 c0                	test   al,al
  40561c:	74 48                	je     405666 <_ZN11__sanitizer20SizeClassAllocator32INS_4AP32EE13AllocateBatchEPNS_14AllocatorStatsEPNS_30SizeClassAllocator32LocalCacheIS2_EEm+0xb6>
  40561e:	49 8b 0c 24          	mov    rcx,QWORD PTR [r12]
  405622:	48 85 c9             	test   rcx,rcx
  405625:	74 43                	je     40566a <_ZN11__sanitizer20SizeClassAllocator32INS_4AP32EE13AllocateBatchEPNS_14AllocatorStatsEPNS_30SizeClassAllocator32LocalCacheIS2_EEm+0xba>
  405627:	48 8b 84 2b 50 00 04 	mov    rax,QWORD PTR [rbx+rbp*1+0x40050]
  40562e:	00 
  40562f:	48 8b 10             	mov    rdx,QWORD PTR [rax]
  405632:	48 89 94 2b 50 00 04 	mov    QWORD PTR [rbx+rbp*1+0x40050],rdx
  405639:	00 
  40563a:	48 85 d2             	test   rdx,rdx
  40563d:	75 0c                	jne    40564b <_ZN11__sanitizer20SizeClassAllocator32INS_4AP32EE13AllocateBatchEPNS_14AllocatorStatsEPNS_30SizeClassAllocator32LocalCacheIS2_EEm+0x9b>
  40563f:	48 c7 84 2b 58 00 04 	mov    QWORD PTR [rbx+rbp*1+0x40058],0x0
  405646:	00 00 00 00 00 
  40564b:	48 83 c1 ff          	add    rcx,0xffffffffffffffff
  40564f:	49 89 0c 24          	mov    QWORD PTR [r12],rcx
  405653:	41 c6 06 00          	mov    BYTE PTR [r14],0x0
  405657:	48 83 c4 08          	add    rsp,0x8
  40565b:	5b                   	pop    rbx
  40565c:	41 5c                	pop    r12
  40565e:	41 5d                	pop    r13
  405660:	41 5e                	pop    r14
  405662:	41 5f                	pop    r15
  405664:	5d                   	pop    rbp
  405665:	c3                   	ret    
  405666:	31 c0                	xor    eax,eax
  405668:	eb e9                	jmp    405653 <_ZN11__sanitizer20SizeClassAllocator32INS_4AP32EE13AllocateBatchEPNS_14AllocatorStatsEPNS_30SizeClassAllocator32LocalCacheIS2_EEm+0xa3>
  40566a:	48 8d 3d 1f 34 02 00 	lea    rdi,[rip+0x2341f]        # 428a90 <_IO_stdin_used+0xa90>
  405671:	48 8d 15 7a 34 02 00 	lea    rdx,[rip+0x2347a]        # 428af2 <_IO_stdin_used+0xaf2>
  405678:	be 41 00 00 00       	mov    esi,0x41
  40567d:	31 c9                	xor    ecx,ecx
  40567f:	45 31 c0             	xor    r8d,r8d
  405682:	e8 e9 f6 00 00       	call   414d70 <_ZN11__sanitizer11CheckFailedEPKciS1_yy>
  405687:	66 0f 1f 84 00 00 00 	nop    WORD PTR [rax+rax*1+0x0]
  40568e:	00 00 

0000000000405690 <_ZN11__sanitizer20SizeClassAllocator32INS_4AP32EE16PopulateFreeListEPNS_14AllocatorStatsEPNS_30SizeClassAllocator32LocalCacheIS2_EEPNS2_13SizeClassInfoEm>:
  405690:	55                   	push   rbp
  405691:	41 57                	push   r15
  405693:	41 56                	push   r14
  405695:	41 55                	push   r13
  405697:	41 54                	push   r12
  405699:	53                   	push   rbx
  40569a:	48 81 ec b8 01 00 00 	sub    rsp,0x1b8
  4056a1:	4d 89 c5             	mov    r13,r8
  4056a4:	48 89 cb             	mov    rbx,rcx
  4056a7:	48 89 54 24 10       	mov    QWORD PTR [rsp+0x10],rdx
  4056ac:	48 89 fd             	mov    rbp,rdi
  4056af:	4c 89 c2             	mov    rdx,r8
  4056b2:	e8 d9 03 00 00       	call   405a90 <_ZN11__sanitizer20SizeClassAllocator32INS_4AP32EE14AllocateRegionEPNS_14AllocatorStatsEm>
  4056b7:	48 85 c0             	test   rax,rax
  4056ba:	0f 84 7c 03 00 00    	je     405a3c <_ZN11__sanitizer20SizeClassAllocator32INS_4AP32EE16PopulateFreeListEPNS_14AllocatorStatsEPNS_30SizeClassAllocator32LocalCacheIS2_EEPNS2_13SizeClassInfoEm+0x3ac>
  4056c0:	49 89 c1             	mov    r9,rax
  4056c3:	41 ba 00 02 00 00    	mov    r10d,0x200
  4056c9:	49 83 fd 35          	cmp    r13,0x35
  4056cd:	48 8b 7c 24 10       	mov    rdi,QWORD PTR [rsp+0x10]
  4056d2:	74 3d                	je     405711 <_ZN11__sanitizer20SizeClassAllocator32INS_4AP32EE16PopulateFreeListEPNS_14AllocatorStatsEPNS_30SizeClassAllocator32LocalCacheIS2_EEPNS2_13SizeClassInfoEm+0x81>
  4056d4:	49 83 fd 10          	cmp    r13,0x10
  4056d8:	77 09                	ja     4056e3 <_ZN11__sanitizer20SizeClassAllocator32INS_4AP32EE16PopulateFreeListEPNS_14AllocatorStatsEPNS_30SizeClassAllocator32LocalCacheIS2_EEPNS2_13SizeClassInfoEm+0x53>
  4056da:	4d 89 ea             	mov    r10,r13
  4056dd:	49 c1 e2 04          	shl    r10,0x4
  4056e1:	eb 25                	jmp    405708 <_ZN11__sanitizer20SizeClassAllocator32INS_4AP32EE16PopulateFreeListEPNS_14AllocatorStatsEPNS_30SizeClassAllocator32LocalCacheIS2_EEPNS2_13SizeClassInfoEm+0x78>
  4056e3:	4d 8d 55 f0          	lea    r10,[r13-0x10]
  4056e7:	4c 89 d1             	mov    rcx,r10
  4056ea:	48 c1 e9 02          	shr    rcx,0x2
  4056ee:	b8 00 01 00 00       	mov    eax,0x100
  4056f3:	48 d3 e0             	shl    rax,cl
  4056f6:	48 89 c1             	mov    rcx,rax
  4056f9:	48 c1 e9 02          	shr    rcx,0x2
  4056fd:	41 83 e2 03          	and    r10d,0x3
  405701:	4c 0f af d1          	imul   r10,rcx
  405705:	49 01 c2             	add    r10,rax
  405708:	4d 85 d2             	test   r10,r10
  40570b:	0f 84 2f 03 00 00    	je     405a40 <_ZN11__sanitizer20SizeClassAllocator32INS_4AP32EE16PopulateFreeListEPNS_14AllocatorStatsEPNS_30SizeClassAllocator32LocalCacheIS2_EEPNS2_13SizeClassInfoEm+0x3b0>
  405711:	b8 00 40 00 00       	mov    eax,0x4000
  405716:	31 d2                	xor    edx,edx
  405718:	41 f7 f2             	div    r10d
  40571b:	83 f8 40             	cmp    eax,0x40
  40571e:	b9 40 00 00 00       	mov    ecx,0x40
  405723:	48 0f 42 c8          	cmovb  rcx,rax
  405727:	48 85 c9             	test   rcx,rcx
  40572a:	b8 01 00 00 00       	mov    eax,0x1
  40572f:	48 0f 45 c1          	cmovne rax,rcx
  405733:	48 83 f8 3e          	cmp    rax,0x3e
  405737:	41 bc 3e 00 00 00    	mov    r12d,0x3e
  40573d:	4c 0f 42 e0          	cmovb  r12,rax
  405741:	b8 00 00 10 00       	mov    eax,0x100000
  405746:	31 d2                	xor    edx,edx
  405748:	49 f7 f2             	div    r10
  40574b:	48 f7 da             	neg    rdx
  40574e:	4d 8d 1c 11          	lea    r11,[r9+rdx*1]
  405752:	49 81 c3 00 00 10 00 	add    r11,0x100000
  405759:	b0 01                	mov    al,0x1
  40575b:	4d 39 d9             	cmp    r9,r11
  40575e:	0f 83 c6 02 00 00    	jae    405a2a <_ZN11__sanitizer20SizeClassAllocator32INS_4AP32EE16PopulateFreeListEPNS_14AllocatorStatsEPNS_30SizeClassAllocator32LocalCacheIS2_EEPNS2_13SizeClassInfoEm+0x39a>
  405764:	48 89 6c 24 18       	mov    QWORD PTR [rsp+0x18],rbp
  405769:	49 c1 e5 0a          	shl    r13,0xa
  40576d:	4e 8d 04 2f          	lea    r8,[rdi+r13*1]
  405771:	49 83 c0 18          	add    r8,0x18
  405775:	31 ed                	xor    ebp,ebp
  405777:	31 f6                	xor    esi,esi
  405779:	eb 13                	jmp    40578e <_ZN11__sanitizer20SizeClassAllocator32INS_4AP32EE16PopulateFreeListEPNS_14AllocatorStatsEPNS_30SizeClassAllocator32LocalCacheIS2_EEPNS2_13SizeClassInfoEm+0xfe>
  40577b:	0f 1f 44 00 00       	nop    DWORD PTR [rax+rax*1+0x0]
  405780:	31 ed                	xor    ebp,ebp
  405782:	4d 01 d1             	add    r9,r10
  405785:	4d 39 d9             	cmp    r9,r11
  405788:	0f 83 3b 01 00 00    	jae    4058c9 <_ZN11__sanitizer20SizeClassAllocator32INS_4AP32EE16PopulateFreeListEPNS_14AllocatorStatsEPNS_30SizeClassAllocator32LocalCacheIS2_EEPNS2_13SizeClassInfoEm+0x239>
  40578e:	4c 89 4c ec 30       	mov    QWORD PTR [rsp+rbp*8+0x30],r9
  405793:	48 83 c5 01          	add    rbp,0x1
  405797:	48 83 fd 30          	cmp    rbp,0x30
  40579b:	75 e5                	jne    405782 <_ZN11__sanitizer20SizeClassAllocator32INS_4AP32EE16PopulateFreeListEPNS_14AllocatorStatsEPNS_30SizeClassAllocator32LocalCacheIS2_EEPNS2_13SizeClassInfoEm+0xf2>
  40579d:	49 c7 c5 ff ff ff ff 	mov    r13,0xffffffffffffffff
  4057a4:	eb 29                	jmp    4057cf <_ZN11__sanitizer20SizeClassAllocator32INS_4AP32EE16PopulateFreeListEPNS_14AllocatorStatsEPNS_30SizeClassAllocator32LocalCacheIS2_EEPNS2_13SizeClassInfoEm+0x13f>
  4057a6:	66 2e 0f 1f 84 00 00 	nop    WORD PTR cs:[rax+rax*1+0x0]
  4057ad:	00 00 00 
  4057b0:	48 8b 53 18          	mov    rdx,QWORD PTR [rbx+0x18]
  4057b4:	48 89 32             	mov    QWORD PTR [rdx],rsi
  4057b7:	48 89 73 18          	mov    QWORD PTR [rbx+0x18],rsi
  4057bb:	48 83 c1 01          	add    rcx,0x1
  4057bf:	48 89 4b 08          	mov    QWORD PTR [rbx+0x8],rcx
  4057c3:	31 f6                	xor    esi,esi
  4057c5:	49 83 c5 01          	add    r13,0x1
  4057c9:	49 83 fd 2f          	cmp    r13,0x2f
  4057cd:	73 b1                	jae    405780 <_ZN11__sanitizer20SizeClassAllocator32INS_4AP32EE16PopulateFreeListEPNS_14AllocatorStatsEPNS_30SizeClassAllocator32LocalCacheIS2_EEPNS2_13SizeClassInfoEm+0xf0>
  4057cf:	48 85 f6             	test   rsi,rsi
  4057d2:	74 0c                	je     4057e0 <_ZN11__sanitizer20SizeClassAllocator32INS_4AP32EE16PopulateFreeListEPNS_14AllocatorStatsEPNS_30SizeClassAllocator32LocalCacheIS2_EEPNS2_13SizeClassInfoEm+0x150>
  4057d4:	4e 8b 7c ec 38       	mov    r15,QWORD PTR [rsp+r13*8+0x38]
  4057d9:	48 8b 4e 08          	mov    rcx,QWORD PTR [rsi+0x8]
  4057dd:	eb 63                	jmp    405842 <_ZN11__sanitizer20SizeClassAllocator32INS_4AP32EE16PopulateFreeListEPNS_14AllocatorStatsEPNS_30SizeClassAllocator32LocalCacheIS2_EEPNS2_13SizeClassInfoEm+0x1b2>
  4057df:	90                   	nop
  4057e0:	4e 8b 7c ec 38       	mov    r15,QWORD PTR [rsp+r13*8+0x38]
  4057e5:	49 8b 08             	mov    rcx,QWORD PTR [r8]
  4057e8:	4c 89 fe             	mov    rsi,r15
  4057eb:	48 85 c9             	test   rcx,rcx
  4057ee:	74 3f                	je     40582f <_ZN11__sanitizer20SizeClassAllocator32INS_4AP32EE16PopulateFreeListEPNS_14AllocatorStatsEPNS_30SizeClassAllocator32LocalCacheIS2_EEPNS2_13SizeClassInfoEm+0x19f>
  4057f0:	48 83 f9 36          	cmp    rcx,0x36
  4057f4:	0f 83 51 02 00 00    	jae    405a4b <_ZN11__sanitizer20SizeClassAllocator32INS_4AP32EE16PopulateFreeListEPNS_14AllocatorStatsEPNS_30SizeClassAllocator32LocalCacheIS2_EEPNS2_13SizeClassInfoEm+0x3bb>
  4057fa:	49 89 ce             	mov    r14,rcx
  4057fd:	49 c1 e6 0a          	shl    r14,0xa
  405801:	4a 8d 2c 37          	lea    rbp,[rdi+r14*1]
  405805:	4a 8b 14 37          	mov    rdx,QWORD PTR [rdi+r14*1]
  405809:	48 85 d2             	test   rdx,rdx
  40580c:	74 70                	je     40587e <_ZN11__sanitizer20SizeClassAllocator32INS_4AP32EE16PopulateFreeListEPNS_14AllocatorStatsEPNS_30SizeClassAllocator32LocalCacheIS2_EEPNS2_13SizeClassInfoEm+0x1ee>
  40580e:	48 8d 4a ff          	lea    rcx,[rdx-0x1]
  405812:	48 89 4d 00          	mov    QWORD PTR [rbp+0x0],rcx
  405816:	48 8b 4c d5 10       	mov    rcx,QWORD PTR [rbp+rdx*8+0x10]
  40581b:	48 8b 74 d5 18       	mov    rsi,QWORD PTR [rbp+rdx*8+0x18]
  405820:	0f 18 01             	prefetchnta BYTE PTR [rcx]
  405823:	4a 8b 4c 37 10       	mov    rcx,QWORD PTR [rdi+r14*1+0x10]
  405828:	48 01 8f 10 d8 00 00 	add    QWORD PTR [rdi+0xd810],rcx
  40582f:	48 85 f6             	test   rsi,rsi
  405832:	0f 84 04 02 00 00    	je     405a3c <_ZN11__sanitizer20SizeClassAllocator32INS_4AP32EE16PopulateFreeListEPNS_14AllocatorStatsEPNS_30SizeClassAllocator32LocalCacheIS2_EEPNS2_13SizeClassInfoEm+0x3ac>
  405838:	48 c7 46 08 00 00 00 	mov    QWORD PTR [rsi+0x8],0x0
  40583f:	00 
  405840:	31 c9                	xor    ecx,ecx
  405842:	48 8d 51 01          	lea    rdx,[rcx+0x1]
  405846:	48 89 56 08          	mov    QWORD PTR [rsi+0x8],rdx
  40584a:	4c 89 7c ce 10       	mov    QWORD PTR [rsi+rcx*8+0x10],r15
  40584f:	4c 39 e2             	cmp    rdx,r12
  405852:	0f 85 6d ff ff ff    	jne    4057c5 <_ZN11__sanitizer20SizeClassAllocator32INS_4AP32EE16PopulateFreeListEPNS_14AllocatorStatsEPNS_30SizeClassAllocator32LocalCacheIS2_EEPNS2_13SizeClassInfoEm+0x135>
  405858:	48 8b 4b 08          	mov    rcx,QWORD PTR [rbx+0x8]
  40585c:	48 c7 06 00 00 00 00 	mov    QWORD PTR [rsi],0x0
  405863:	48 85 c9             	test   rcx,rcx
  405866:	0f 85 44 ff ff ff    	jne    4057b0 <_ZN11__sanitizer20SizeClassAllocator32INS_4AP32EE16PopulateFreeListEPNS_14AllocatorStatsEPNS_30SizeClassAllocator32LocalCacheIS2_EEPNS2_13SizeClassInfoEm+0x120>
  40586c:	48 89 73 18          	mov    QWORD PTR [rbx+0x18],rsi
  405870:	48 89 73 10          	mov    QWORD PTR [rbx+0x10],rsi
  405874:	b9 01 00 00 00       	mov    ecx,0x1
  405879:	e9 41 ff ff ff       	jmp    4057bf <_ZN11__sanitizer20SizeClassAllocator32INS_4AP32EE16PopulateFreeListEPNS_14AllocatorStatsEPNS_30SizeClassAllocator32LocalCacheIS2_EEPNS2_13SizeClassInfoEm+0x12f>
  40587e:	4c 89 5c 24 20       	mov    QWORD PTR [rsp+0x20],r11
  405883:	4c 89 54 24 28       	mov    QWORD PTR [rsp+0x28],r10
  405888:	4c 89 0c 24          	mov    QWORD PTR [rsp],r9
  40588c:	4c 89 44 24 08       	mov    QWORD PTR [rsp+0x8],r8
  405891:	48 89 ee             	mov    rsi,rbp
  405894:	48 8b 54 24 18       	mov    rdx,QWORD PTR [rsp+0x18]
  405899:	e8 02 fa ff ff       	call   4052a0 <_ZN11__sanitizer30SizeClassAllocator32LocalCacheINS_20SizeClassAllocator32INS_4AP32EEEE6RefillEPNS4_8PerClassEPS3_m>
  40589e:	84 c0                	test   al,al
  4058a0:	0f 84 96 01 00 00    	je     405a3c <_ZN11__sanitizer20SizeClassAllocator32INS_4AP32EE16PopulateFreeListEPNS_14AllocatorStatsEPNS_30SizeClassAllocator32LocalCacheIS2_EEPNS2_13SizeClassInfoEm+0x3ac>
  4058a6:	48 8b 55 00          	mov    rdx,QWORD PTR [rbp+0x0]
  4058aa:	48 8b 7c 24 10       	mov    rdi,QWORD PTR [rsp+0x10]
  4058af:	b0 01                	mov    al,0x1
  4058b1:	4c 8b 44 24 08       	mov    r8,QWORD PTR [rsp+0x8]
  4058b6:	4c 8b 0c 24          	mov    r9,QWORD PTR [rsp]
  4058ba:	4c 8b 54 24 28       	mov    r10,QWORD PTR [rsp+0x28]
  4058bf:	4c 8b 5c 24 20       	mov    r11,QWORD PTR [rsp+0x20]
  4058c4:	e9 45 ff ff ff       	jmp    40580e <_ZN11__sanitizer20SizeClassAllocator32INS_4AP32EE16PopulateFreeListEPNS_14AllocatorStatsEPNS_30SizeClassAllocator32LocalCacheIS2_EEPNS2_13SizeClassInfoEm+0x17e>
  4058c9:	48 85 ed             	test   rbp,rbp
  4058cc:	0f 84 1a 01 00 00    	je     4059ec <_ZN11__sanitizer20SizeClassAllocator32INS_4AP32EE16PopulateFreeListEPNS_14AllocatorStatsEPNS_30SizeClassAllocator32LocalCacheIS2_EEPNS2_13SizeClassInfoEm+0x35c>
  4058d2:	45 31 ff             	xor    r15d,r15d
  4058d5:	eb 2b                	jmp    405902 <_ZN11__sanitizer20SizeClassAllocator32INS_4AP32EE16PopulateFreeListEPNS_14AllocatorStatsEPNS_30SizeClassAllocator32LocalCacheIS2_EEPNS2_13SizeClassInfoEm+0x272>
  4058d7:	66 0f 1f 84 00 00 00 	nop    WORD PTR [rax+rax*1+0x0]
  4058de:	00 00 
  4058e0:	48 8b 53 18          	mov    rdx,QWORD PTR [rbx+0x18]
  4058e4:	48 89 32             	mov    QWORD PTR [rdx],rsi
  4058e7:	48 89 73 18          	mov    QWORD PTR [rbx+0x18],rsi
  4058eb:	48 83 c1 01          	add    rcx,0x1
  4058ef:	48 89 4b 08          	mov    QWORD PTR [rbx+0x8],rcx
  4058f3:	31 f6                	xor    esi,esi
  4058f5:	49 83 c7 01          	add    r15,0x1
  4058f9:	4c 39 fd             	cmp    rbp,r15
  4058fc:	0f 84 ea 00 00 00    	je     4059ec <_ZN11__sanitizer20SizeClassAllocator32INS_4AP32EE16PopulateFreeListEPNS_14AllocatorStatsEPNS_30SizeClassAllocator32LocalCacheIS2_EEPNS2_13SizeClassInfoEm+0x35c>
  405902:	48 85 f6             	test   rsi,rsi
  405905:	74 19                	je     405920 <_ZN11__sanitizer20SizeClassAllocator32INS_4AP32EE16PopulateFreeListEPNS_14AllocatorStatsEPNS_30SizeClassAllocator32LocalCacheIS2_EEPNS2_13SizeClassInfoEm+0x290>
  405907:	4e 8b 6c fc 30       	mov    r13,QWORD PTR [rsp+r15*8+0x30]
  40590c:	48 8b 4e 08          	mov    rcx,QWORD PTR [rsi+0x8]
  405910:	eb 6f                	jmp    405981 <_ZN11__sanitizer20SizeClassAllocator32INS_4AP32EE16PopulateFreeListEPNS_14AllocatorStatsEPNS_30SizeClassAllocator32LocalCacheIS2_EEPNS2_13SizeClassInfoEm+0x2f1>
  405912:	66 2e 0f 1f 84 00 00 	nop    WORD PTR cs:[rax+rax*1+0x0]
  405919:	00 00 00 
  40591c:	0f 1f 40 00          	nop    DWORD PTR [rax+0x0]
  405920:	4e 8b 6c fc 30       	mov    r13,QWORD PTR [rsp+r15*8+0x30]
  405925:	49 8b 08             	mov    rcx,QWORD PTR [r8]
  405928:	4c 89 ee             	mov    rsi,r13
  40592b:	48 85 c9             	test   rcx,rcx
  40592e:	74 3e                	je     40596e <_ZN11__sanitizer20SizeClassAllocator32INS_4AP32EE16PopulateFreeListEPNS_14AllocatorStatsEPNS_30SizeClassAllocator32LocalCacheIS2_EEPNS2_13SizeClassInfoEm+0x2de>
  405930:	48 83 f9 36          	cmp    rcx,0x36
  405934:	0f 83 11 01 00 00    	jae    405a4b <_ZN11__sanitizer20SizeClassAllocator32INS_4AP32EE16PopulateFreeListEPNS_14AllocatorStatsEPNS_30SizeClassAllocator32LocalCacheIS2_EEPNS2_13SizeClassInfoEm+0x3bb>
  40593a:	49 89 ce             	mov    r14,rcx
  40593d:	49 c1 e6 0a          	shl    r14,0xa
  405941:	4a 8d 34 37          	lea    rsi,[rdi+r14*1]
  405945:	4a 8b 14 37          	mov    rdx,QWORD PTR [rdi+r14*1]
  405949:	48 85 d2             	test   rdx,rdx
  40594c:	74 6f                	je     4059bd <_ZN11__sanitizer20SizeClassAllocator32INS_4AP32EE16PopulateFreeListEPNS_14AllocatorStatsEPNS_30SizeClassAllocator32LocalCacheIS2_EEPNS2_13SizeClassInfoEm+0x32d>
  40594e:	48 8d 4a ff          	lea    rcx,[rdx-0x1]
  405952:	48 89 0e             	mov    QWORD PTR [rsi],rcx
  405955:	48 8b 4c d6 10       	mov    rcx,QWORD PTR [rsi+rdx*8+0x10]
  40595a:	48 8b 74 d6 18       	mov    rsi,QWORD PTR [rsi+rdx*8+0x18]
  40595f:	0f 18 01             	prefetchnta BYTE PTR [rcx]
  405962:	4a 8b 4c 37 10       	mov    rcx,QWORD PTR [rdi+r14*1+0x10]
  405967:	48 01 8f 10 d8 00 00 	add    QWORD PTR [rdi+0xd810],rcx
  40596e:	48 85 f6             	test   rsi,rsi
  405971:	0f 84 c5 00 00 00    	je     405a3c <_ZN11__sanitizer20SizeClassAllocator32INS_4AP32EE16PopulateFreeListEPNS_14AllocatorStatsEPNS_30SizeClassAllocator32LocalCacheIS2_EEPNS2_13SizeClassInfoEm+0x3ac>
  405977:	48 c7 46 08 00 00 00 	mov    QWORD PTR [rsi+0x8],0x0
  40597e:	00 
  40597f:	31 c9                	xor    ecx,ecx
  405981:	48 8d 51 01          	lea    rdx,[rcx+0x1]
  405985:	48 89 56 08          	mov    QWORD PTR [rsi+0x8],rdx
  405989:	4c 89 6c ce 10       	mov    QWORD PTR [rsi+rcx*8+0x10],r13
  40598e:	4c 39 e2             	cmp    rdx,r12
  405991:	0f 85 5e ff ff ff    	jne    4058f5 <_ZN11__sanitizer20SizeClassAllocator32INS_4AP32EE16PopulateFreeListEPNS_14AllocatorStatsEPNS_30SizeClassAllocator32LocalCacheIS2_EEPNS2_13SizeClassInfoEm+0x265>
  405997:	48 8b 4b 08          	mov    rcx,QWORD PTR [rbx+0x8]
  40599b:	48 c7 06 00 00 00 00 	mov    QWORD PTR [rsi],0x0
  4059a2:	48 85 c9             	test   rcx,rcx
  4059a5:	0f 85 35 ff ff ff    	jne    4058e0 <_ZN11__sanitizer20SizeClassAllocator32INS_4AP32EE16PopulateFreeListEPNS_14AllocatorStatsEPNS_30SizeClassAllocator32LocalCacheIS2_EEPNS2_13SizeClassInfoEm+0x250>
  4059ab:	48 89 73 18          	mov    QWORD PTR [rbx+0x18],rsi
  4059af:	48 89 73 10          	mov    QWORD PTR [rbx+0x10],rsi
  4059b3:	b9 01 00 00 00       	mov    ecx,0x1
  4059b8:	e9 32 ff ff ff       	jmp    4058ef <_ZN11__sanitizer20SizeClassAllocator32INS_4AP32EE16PopulateFreeListEPNS_14AllocatorStatsEPNS_30SizeClassAllocator32LocalCacheIS2_EEPNS2_13SizeClassInfoEm+0x25f>
  4059bd:	4c 89 44 24 08       	mov    QWORD PTR [rsp+0x8],r8
  4059c2:	48 89 34 24          	mov    QWORD PTR [rsp],rsi
  4059c6:	48 8b 54 24 18       	mov    rdx,QWORD PTR [rsp+0x18]
  4059cb:	e8 d0 f8 ff ff       	call   4052a0 <_ZN11__sanitizer30SizeClassAllocator32LocalCacheINS_20SizeClassAllocator32INS_4AP32EEEE6RefillEPNS4_8PerClassEPS3_m>
  4059d0:	84 c0                	test   al,al
  4059d2:	74 68                	je     405a3c <_ZN11__sanitizer20SizeClassAllocator32INS_4AP32EE16PopulateFreeListEPNS_14AllocatorStatsEPNS_30SizeClassAllocator32LocalCacheIS2_EEPNS2_13SizeClassInfoEm+0x3ac>
  4059d4:	48 8b 34 24          	mov    rsi,QWORD PTR [rsp]
  4059d8:	48 8b 16             	mov    rdx,QWORD PTR [rsi]
  4059db:	48 8b 7c 24 10       	mov    rdi,QWORD PTR [rsp+0x10]
  4059e0:	b0 01                	mov    al,0x1
  4059e2:	4c 8b 44 24 08       	mov    r8,QWORD PTR [rsp+0x8]
  4059e7:	e9 62 ff ff ff       	jmp    40594e <_ZN11__sanitizer20SizeClassAllocator32INS_4AP32EE16PopulateFreeListEPNS_14AllocatorStatsEPNS_30SizeClassAllocator32LocalCacheIS2_EEPNS2_13SizeClassInfoEm+0x2be>
  4059ec:	48 85 f6             	test   rsi,rsi
  4059ef:	74 39                	je     405a2a <_ZN11__sanitizer20SizeClassAllocator32INS_4AP32EE16PopulateFreeListEPNS_14AllocatorStatsEPNS_30SizeClassAllocator32LocalCacheIS2_EEPNS2_13SizeClassInfoEm+0x39a>
  4059f1:	48 83 7e 08 00       	cmp    QWORD PTR [rsi+0x8],0x0
  4059f6:	74 71                	je     405a69 <_ZN11__sanitizer20SizeClassAllocator32INS_4AP32EE16PopulateFreeListEPNS_14AllocatorStatsEPNS_30SizeClassAllocator32LocalCacheIS2_EEPNS2_13SizeClassInfoEm+0x3d9>
  4059f8:	48 8b 4b 08          	mov    rcx,QWORD PTR [rbx+0x8]
  4059fc:	48 c7 06 00 00 00 00 	mov    QWORD PTR [rsi],0x0
  405a03:	48 85 c9             	test   rcx,rcx
  405a06:	74 11                	je     405a19 <_ZN11__sanitizer20SizeClassAllocator32INS_4AP32EE16PopulateFreeListEPNS_14AllocatorStatsEPNS_30SizeClassAllocator32LocalCacheIS2_EEPNS2_13SizeClassInfoEm+0x389>
  405a08:	48 8b 53 18          	mov    rdx,QWORD PTR [rbx+0x18]
  405a0c:	48 89 32             	mov    QWORD PTR [rdx],rsi
  405a0f:	48 89 73 18          	mov    QWORD PTR [rbx+0x18],rsi
  405a13:	48 83 c1 01          	add    rcx,0x1
  405a17:	eb 0d                	jmp    405a26 <_ZN11__sanitizer20SizeClassAllocator32INS_4AP32EE16PopulateFreeListEPNS_14AllocatorStatsEPNS_30SizeClassAllocator32LocalCacheIS2_EEPNS2_13SizeClassInfoEm+0x396>
  405a19:	48 89 73 18          	mov    QWORD PTR [rbx+0x18],rsi
  405a1d:	48 89 73 10          	mov    QWORD PTR [rbx+0x10],rsi
  405a21:	b9 01 00 00 00       	mov    ecx,0x1
  405a26:	48 89 4b 08          	mov    QWORD PTR [rbx+0x8],rcx
  405a2a:	48 81 c4 b8 01 00 00 	add    rsp,0x1b8
  405a31:	5b                   	pop    rbx
  405a32:	41 5c                	pop    r12
  405a34:	41 5d                	pop    r13
  405a36:	41 5e                	pop    r14
  405a38:	41 5f                	pop    r15
  405a3a:	5d                   	pop    rbp
  405a3b:	c3                   	ret    
  405a3c:	31 c0                	xor    eax,eax
  405a3e:	eb ea                	jmp    405a2a <_ZN11__sanitizer20SizeClassAllocator32INS_4AP32EE16PopulateFreeListEPNS_14AllocatorStatsEPNS_30SizeClassAllocator32LocalCacheIS2_EEPNS2_13SizeClassInfoEm+0x39a>
  405a40:	45 31 d2             	xor    r10d,r10d
  405a43:	45 31 e4             	xor    r12d,r12d
  405a46:	e9 f6 fc ff ff       	jmp    405741 <_ZN11__sanitizer20SizeClassAllocator32INS_4AP32EE16PopulateFreeListEPNS_14AllocatorStatsEPNS_30SizeClassAllocator32LocalCacheIS2_EEPNS2_13SizeClassInfoEm+0xb1>
  405a4b:	48 8d 3d af 2d 02 00 	lea    rdi,[rip+0x22daf]        # 428801 <_IO_stdin_used+0x801>
  405a52:	48 8d 15 33 2e 02 00 	lea    rdx,[rip+0x22e33]        # 42888c <_IO_stdin_used+0x88c>
  405a59:	41 b8 36 00 00 00    	mov    r8d,0x36
  405a5f:	be 9a 00 00 00       	mov    esi,0x9a
  405a64:	e8 07 f3 00 00       	call   414d70 <_ZN11__sanitizer11CheckFailedEPKciS1_yy>
  405a69:	48 8d 3d c6 2e 02 00 	lea    rdi,[rip+0x22ec6]        # 428936 <_IO_stdin_used+0x936>
  405a70:	48 8d 15 34 2e 02 00 	lea    rdx,[rip+0x22e34]        # 4288ab <_IO_stdin_used+0x8ab>
  405a77:	be 75 01 00 00       	mov    esi,0x175
  405a7c:	31 c9                	xor    ecx,ecx
  405a7e:	45 31 c0             	xor    r8d,r8d
  405a81:	e8 ea f2 00 00       	call   414d70 <_ZN11__sanitizer11CheckFailedEPKciS1_yy>
  405a86:	66 2e 0f 1f 84 00 00 	nop    WORD PTR cs:[rax+rax*1+0x0]
  405a8d:	00 00 00 

0000000000405a90 <_ZN11__sanitizer20SizeClassAllocator32INS_4AP32EE14AllocateRegionEPNS_14AllocatorStatsEm>:
  405a90:	55                   	push   rbp
  405a91:	41 57                	push   r15
  405a93:	41 56                	push   r14
  405a95:	41 55                	push   r13
  405a97:	41 54                	push   r12
  405a99:	53                   	push   rbx
  405a9a:	50                   	push   rax
  405a9b:	49 89 d6             	mov    r14,rdx
  405a9e:	48 89 f3             	mov    rbx,rsi
  405aa1:	49 89 fc             	mov    r12,rdi
  405aa4:	48 8b 15 65 67 03 00 	mov    rdx,QWORD PTR [rip+0x36765]        # 43c210 <_ZN11__sanitizer20PrimaryAllocatorNameE>
  405aab:	bf 00 00 10 00       	mov    edi,0x100000
  405ab0:	be 00 00 10 00       	mov    esi,0x100000
  405ab5:	e8 f6 a4 00 00       	call   40ffb0 <_ZN11__sanitizer28MmapAlignedOrDieOnFatalErrorEmmPKc>
  405aba:	48 85 c0             	test   rax,rax
  405abd:	0f 84 a5 00 00 00    	je     405b68 <_ZN11__sanitizer20SizeClassAllocator32INS_4AP32EE14AllocateRegionEPNS_14AllocatorStatsEm+0xd8>
  405ac3:	49 89 c7             	mov    r15,rax
  405ac6:	48 81 43 18 00 00 10 	add    QWORD PTR [rbx+0x18],0x100000
  405acd:	00 
  405ace:	41 f7 c7 ff ff 0f 00 	test   r15d,0xfffff
  405ad5:	0f 85 92 00 00 00    	jne    405b6d <_ZN11__sanitizer20SizeClassAllocator32INS_4AP32EE14AllocateRegionEPNS_14AllocatorStatsEm+0xdd>
  405adb:	4c 89 fb             	mov    rbx,r15
  405ade:	48 c1 eb 14          	shr    rbx,0x14
  405ae2:	4c 89 f8             	mov    rax,r15
  405ae5:	48 c1 e8 2f          	shr    rax,0x2f
  405ae9:	0f 85 9b 00 00 00    	jne    405b8a <_ZN11__sanitizer20SizeClassAllocator32INS_4AP32EE14AllocateRegionEPNS_14AllocatorStatsEm+0xfa>
  405aef:	4c 89 fd             	mov    rbp,r15
  405af2:	48 c1 ed 20          	shr    rbp,0x20
  405af6:	49 8b 04 ec          	mov    rax,QWORD PTR [r12+rbp*8]
  405afa:	48 85 c0             	test   rax,rax
  405afd:	75 43                	jne    405b42 <_ZN11__sanitizer20SizeClassAllocator32INS_4AP32EE14AllocateRegionEPNS_14AllocatorStatsEm+0xb2>
  405aff:	4d 8d ac 24 00 00 04 	lea    r13,[r12+0x40000]
  405b06:	00 
  405b07:	b0 01                	mov    al,0x1
  405b09:	41 86 84 24 00 00 04 	xchg   BYTE PTR [r12+0x40000],al
  405b10:	00 
  405b11:	84 c0                	test   al,al
  405b13:	74 08                	je     405b1d <_ZN11__sanitizer20SizeClassAllocator32INS_4AP32EE14AllocateRegionEPNS_14AllocatorStatsEm+0x8d>
  405b15:	4c 89 ef             	mov    rdi,r13
  405b18:	e8 e3 0b 00 00       	call   406700 <_ZN11__sanitizer15StaticSpinMutex8LockSlowEv>
  405b1d:	49 8b 04 ec          	mov    rax,QWORD PTR [r12+rbp*8]
  405b21:	48 85 c0             	test   rax,rax
  405b24:	75 17                	jne    405b3d <_ZN11__sanitizer20SizeClassAllocator32INS_4AP32EE14AllocateRegionEPNS_14AllocatorStatsEm+0xad>
  405b26:	48 8d 35 31 2f 02 00 	lea    rsi,[rip+0x22f31]        # 428a5e <_IO_stdin_used+0xa5e>
  405b2d:	bf 00 10 00 00       	mov    edi,0x1000
  405b32:	31 d2                	xor    edx,edx
  405b34:	e8 d7 a1 00 00       	call   40fd10 <_ZN11__sanitizer9MmapOrDieEmPKcb>
  405b39:	49 89 04 ec          	mov    QWORD PTR [r12+rbp*8],rax
  405b3d:	41 c6 45 00 00       	mov    BYTE PTR [r13+0x0],0x0
  405b42:	81 e3 ff 0f 00 00    	and    ebx,0xfff
  405b48:	44 0f b6 04 18       	movzx  r8d,BYTE PTR [rax+rbx*1]
  405b4d:	4d 85 c0             	test   r8,r8
  405b50:	75 59                	jne    405bab <_ZN11__sanitizer20SizeClassAllocator32INS_4AP32EE14AllocateRegionEPNS_14AllocatorStatsEm+0x11b>
  405b52:	44 88 34 18          	mov    BYTE PTR [rax+rbx*1],r14b
  405b56:	4c 89 f8             	mov    rax,r15
  405b59:	48 83 c4 08          	add    rsp,0x8
  405b5d:	5b                   	pop    rbx
  405b5e:	41 5c                	pop    r12
  405b60:	41 5d                	pop    r13
  405b62:	41 5e                	pop    r14
  405b64:	41 5f                	pop    r15
  405b66:	5d                   	pop    rbp
  405b67:	c3                   	ret    
  405b68:	45 31 ff             	xor    r15d,r15d
  405b6b:	eb e9                	jmp    405b56 <_ZN11__sanitizer20SizeClassAllocator32INS_4AP32EE14AllocateRegionEPNS_14AllocatorStatsEm+0xc6>
  405b6d:	48 8d 3d c2 2d 02 00 	lea    rdi,[rip+0x22dc2]        # 428936 <_IO_stdin_used+0x936>
  405b74:	48 8d 15 2c 2e 02 00 	lea    rdx,[rip+0x22e2c]        # 4289a7 <_IO_stdin_used+0x9a7>
  405b7b:	be 32 01 00 00       	mov    esi,0x132
  405b80:	31 c9                	xor    ecx,ecx
  405b82:	45 31 c0             	xor    r8d,r8d
  405b85:	e8 e6 f1 00 00       	call   414d70 <_ZN11__sanitizer11CheckFailedEPKciS1_yy>
  405b8a:	48 8d 3d a5 2d 02 00 	lea    rdi,[rip+0x22da5]        # 428936 <_IO_stdin_used+0x936>
  405b91:	48 8d 15 d6 2e 02 00 	lea    rdx,[rip+0x22ed6]        # 428a6e <_IO_stdin_used+0xa6e>
  405b98:	41 b8 00 00 00 08    	mov    r8d,0x8000000
  405b9e:	be 22 01 00 00       	mov    esi,0x122
  405ba3:	48 89 d9             	mov    rcx,rbx
  405ba6:	e8 c5 f1 00 00       	call   414d70 <_ZN11__sanitizer11CheckFailedEPKciS1_yy>
  405bab:	48 8d 3d 1c 2e 02 00 	lea    rdi,[rip+0x22e1c]        # 4289ce <_IO_stdin_used+0x9ce>
  405bb2:	48 8d 15 84 2e 02 00 	lea    rdx,[rip+0x22e84]        # 428a3d <_IO_stdin_used+0xa3d>
  405bb9:	be 47 00 00 00       	mov    esi,0x47
  405bbe:	31 c9                	xor    ecx,ecx
  405bc0:	e8 ab f1 00 00       	call   414d70 <_ZN11__sanitizer11CheckFailedEPKciS1_yy>
  405bc5:	66 2e 0f 1f 84 00 00 	nop    WORD PTR cs:[rax+rax*1+0x0]
  405bcc:	00 00 00 
  405bcf:	90                   	nop

0000000000405bd0 <_ZN11__sanitizer30SizeClassAllocator32LocalCacheINS_20SizeClassAllocator32INS_4AP32EEEE10DeallocateEPS3_mPv>:
  405bd0:	41 57                	push   r15
  405bd2:	41 56                	push   r14
  405bd4:	41 54                	push   r12
  405bd6:	53                   	push   rbx
  405bd7:	50                   	push   rax
  405bd8:	48 85 d2             	test   rdx,rdx
  405bdb:	0f 84 5f 01 00 00    	je     405d40 <_ZN11__sanitizer30SizeClassAllocator32LocalCacheINS_20SizeClassAllocator32INS_4AP32EEEE10DeallocateEPS3_mPv+0x170>
  405be1:	49 89 d1             	mov    r9,rdx
  405be4:	48 83 fa 36          	cmp    rdx,0x36
  405be8:	0f 83 6f 01 00 00    	jae    405d5d <_ZN11__sanitizer30SizeClassAllocator32LocalCacheINS_20SizeClassAllocator32INS_4AP32EEEE10DeallocateEPS3_mPv+0x18d>
  405bee:	49 89 ce             	mov    r14,rcx
  405bf1:	49 89 f0             	mov    r8,rsi
  405bf4:	49 89 fc             	mov    r12,rdi
  405bf7:	4c 89 cb             	mov    rbx,r9
  405bfa:	48 c1 e3 0a          	shl    rbx,0xa
  405bfe:	4c 8d 3c 1f          	lea    r15,[rdi+rbx*1]
  405c02:	48 8b 4c 1f 08       	mov    rcx,QWORD PTR [rdi+rbx*1+0x8]
  405c07:	48 85 c9             	test   rcx,rcx
  405c0a:	74 31                	je     405c3d <_ZN11__sanitizer30SizeClassAllocator32LocalCacheINS_20SizeClassAllocator32INS_4AP32EEEE10DeallocateEPS3_mPv+0x6d>
  405c0c:	49 8b 07             	mov    rax,QWORD PTR [r15]
  405c0f:	48 39 c8             	cmp    rax,rcx
  405c12:	0f 84 0f 01 00 00    	je     405d27 <_ZN11__sanitizer30SizeClassAllocator32LocalCacheINS_20SizeClassAllocator32INS_4AP32EEEE10DeallocateEPS3_mPv+0x157>
  405c18:	48 8d 48 01          	lea    rcx,[rax+0x1]
  405c1c:	49 89 0f             	mov    QWORD PTR [r15],rcx
  405c1f:	4d 89 74 c7 20       	mov    QWORD PTR [r15+rax*8+0x20],r14
  405c24:	49 8b 44 1c 10       	mov    rax,QWORD PTR [r12+rbx*1+0x10]
  405c29:	49 29 84 24 10 d8 00 	sub    QWORD PTR [r12+0xd810],rax
  405c30:	00 
  405c31:	48 83 c4 08          	add    rsp,0x8
  405c35:	5b                   	pop    rbx
  405c36:	41 5c                	pop    r12
  405c38:	41 5e                	pop    r14
  405c3a:	41 5f                	pop    r15
  405c3c:	c3                   	ret    
  405c3d:	4d 8d 14 1c          	lea    r10,[r12+rbx*1]
  405c41:	49 83 c2 08          	add    r10,0x8
  405c45:	49 8d bc 24 18 04 00 	lea    rdi,[r12+0x418]
  405c4c:	00 
  405c4d:	41 bb 10 00 00 00    	mov    r11d,0x10
  405c53:	48 c7 c6 f1 ff ff ff 	mov    rsi,0xfffffffffffffff1
  405c5a:	eb 1c                	jmp    405c78 <_ZN11__sanitizer30SizeClassAllocator32LocalCacheINS_20SizeClassAllocator32INS_4AP32EEEE10DeallocateEPS3_mPv+0xa8>
  405c5c:	48 89 07             	mov    QWORD PTR [rdi],rax
  405c5f:	49 83 c3 10          	add    r11,0x10
  405c63:	48 83 c6 01          	add    rsi,0x1
  405c67:	48 81 c7 00 04 00 00 	add    rdi,0x400
  405c6e:	48 83 fe 26          	cmp    rsi,0x26
  405c72:	0f 84 a0 00 00 00    	je     405d18 <_ZN11__sanitizer30SizeClassAllocator32LocalCacheINS_20SizeClassAllocator32INS_4AP32EEEE10DeallocateEPS3_mPv+0x148>
  405c78:	b9 00 02 00 00       	mov    ecx,0x200
  405c7d:	48 83 fe 25          	cmp    rsi,0x25
  405c81:	74 2f                	je     405cb2 <_ZN11__sanitizer30SizeClassAllocator32LocalCacheINS_20SizeClassAllocator32INS_4AP32EEEE10DeallocateEPS3_mPv+0xe2>
  405c83:	48 8d 46 10          	lea    rax,[rsi+0x10]
  405c87:	4c 89 d9             	mov    rcx,r11
  405c8a:	48 83 f8 11          	cmp    rax,0x11
  405c8e:	72 22                	jb     405cb2 <_ZN11__sanitizer30SizeClassAllocator32LocalCacheINS_20SizeClassAllocator32INS_4AP32EEEE10DeallocateEPS3_mPv+0xe2>
  405c90:	48 89 f1             	mov    rcx,rsi
  405c93:	48 c1 e9 02          	shr    rcx,0x2
  405c97:	b8 00 01 00 00       	mov    eax,0x100
  405c9c:	48 d3 e0             	shl    rax,cl
  405c9f:	48 89 c2             	mov    rdx,rax
  405ca2:	48 c1 ea 02          	shr    rdx,0x2
  405ca6:	89 f1                	mov    ecx,esi
  405ca8:	83 e1 03             	and    ecx,0x3
  405cab:	48 0f af ca          	imul   rcx,rdx
  405caf:	48 01 c1             	add    rcx,rax
  405cb2:	b8 00 40 00 00       	mov    eax,0x4000
  405cb7:	31 d2                	xor    edx,edx
  405cb9:	f7 f1                	div    ecx
  405cbb:	83 f8 40             	cmp    eax,0x40
  405cbe:	73 3e                	jae    405cfe <_ZN11__sanitizer30SizeClassAllocator32LocalCacheINS_20SizeClassAllocator32INS_4AP32EEEE10DeallocateEPS3_mPv+0x12e>
  405cc0:	ba 01 00 00 00       	mov    edx,0x1
  405cc5:	48 85 c0             	test   rax,rax
  405cc8:	75 43                	jne    405d0d <_ZN11__sanitizer30SizeClassAllocator32LocalCacheINS_20SizeClassAllocator32INS_4AP32EEEE10DeallocateEPS3_mPv+0x13d>
  405cca:	48 83 fa 3e          	cmp    rdx,0x3e
  405cce:	72 05                	jb     405cd5 <_ZN11__sanitizer30SizeClassAllocator32LocalCacheINS_20SizeClassAllocator32INS_4AP32EEEE10DeallocateEPS3_mPv+0x105>
  405cd0:	ba 3e 00 00 00       	mov    edx,0x3e
  405cd5:	48 8d 04 12          	lea    rax,[rdx+rdx*1]
  405cd9:	48 89 47 f0          	mov    QWORD PTR [rdi-0x10],rax
  405cdd:	48 89 4f f8          	mov    QWORD PTR [rdi-0x8],rcx
  405ce1:	48 8d 14 d5 10 00 00 	lea    rdx,[rdx*8+0x10]
  405ce8:	00 
  405ce9:	b8 14 00 00 00       	mov    eax,0x14
  405cee:	48 39 d1             	cmp    rcx,rdx
  405cf1:	0f 82 65 ff ff ff    	jb     405c5c <_ZN11__sanitizer30SizeClassAllocator32LocalCacheINS_20SizeClassAllocator32INS_4AP32EEEE10DeallocateEPS3_mPv+0x8c>
  405cf7:	31 c0                	xor    eax,eax
  405cf9:	e9 5e ff ff ff       	jmp    405c5c <_ZN11__sanitizer30SizeClassAllocator32LocalCacheINS_20SizeClassAllocator32INS_4AP32EEEE10DeallocateEPS3_mPv+0x8c>
  405cfe:	b8 40 00 00 00       	mov    eax,0x40
  405d03:	ba 01 00 00 00       	mov    edx,0x1
  405d08:	48 85 c0             	test   rax,rax
  405d0b:	74 bd                	je     405cca <_ZN11__sanitizer30SizeClassAllocator32LocalCacheINS_20SizeClassAllocator32INS_4AP32EEEE10DeallocateEPS3_mPv+0xfa>
  405d0d:	48 89 c2             	mov    rdx,rax
  405d10:	48 83 fa 3e          	cmp    rdx,0x3e
  405d14:	73 ba                	jae    405cd0 <_ZN11__sanitizer30SizeClassAllocator32LocalCacheINS_20SizeClassAllocator32INS_4AP32EEEE10DeallocateEPS3_mPv+0x100>
  405d16:	eb bd                	jmp    405cd5 <_ZN11__sanitizer30SizeClassAllocator32LocalCacheINS_20SizeClassAllocator32INS_4AP32EEEE10DeallocateEPS3_mPv+0x105>
  405d18:	49 8b 0a             	mov    rcx,QWORD PTR [r10]
  405d1b:	49 8b 07             	mov    rax,QWORD PTR [r15]
  405d1e:	48 39 c8             	cmp    rax,rcx
  405d21:	0f 85 f1 fe ff ff    	jne    405c18 <_ZN11__sanitizer30SizeClassAllocator32LocalCacheINS_20SizeClassAllocator32INS_4AP32EEEE10DeallocateEPS3_mPv+0x48>
  405d27:	4c 89 e7             	mov    rdi,r12
  405d2a:	4c 89 fe             	mov    rsi,r15
  405d2d:	4c 89 c2             	mov    rdx,r8
  405d30:	4c 89 c9             	mov    rcx,r9
  405d33:	e8 48 00 00 00       	call   405d80 <_ZN11__sanitizer30SizeClassAllocator32LocalCacheINS_20SizeClassAllocator32INS_4AP32EEEE5DrainEPNS4_8PerClassEPS3_m>
  405d38:	49 8b 07             	mov    rax,QWORD PTR [r15]
  405d3b:	e9 d8 fe ff ff       	jmp    405c18 <_ZN11__sanitizer30SizeClassAllocator32LocalCacheINS_20SizeClassAllocator32INS_4AP32EEEE10DeallocateEPS3_mPv+0x48>
  405d40:	48 8d 3d ba 2a 02 00 	lea    rdi,[rip+0x22aba]        # 428801 <_IO_stdin_used+0x801>
  405d47:	48 8d 15 26 2b 02 00 	lea    rdx,[rip+0x22b26]        # 428874 <_IO_stdin_used+0x874>
  405d4e:	be a8 00 00 00       	mov    esi,0xa8
  405d53:	31 c9                	xor    ecx,ecx
  405d55:	45 31 c0             	xor    r8d,r8d
  405d58:	e8 13 f0 00 00       	call   414d70 <_ZN11__sanitizer11CheckFailedEPKciS1_yy>
  405d5d:	48 8d 3d 9d 2a 02 00 	lea    rdi,[rip+0x22a9d]        # 428801 <_IO_stdin_used+0x801>
  405d64:	48 8d 15 21 2b 02 00 	lea    rdx,[rip+0x22b21]        # 42888c <_IO_stdin_used+0x88c>
  405d6b:	41 b8 36 00 00 00    	mov    r8d,0x36
  405d71:	be a9 00 00 00       	mov    esi,0xa9
  405d76:	4c 89 c9             	mov    rcx,r9
  405d79:	e8 f2 ef 00 00       	call   414d70 <_ZN11__sanitizer11CheckFailedEPKciS1_yy>
  405d7e:	66 90                	xchg   ax,ax

0000000000405d80 <_ZN11__sanitizer30SizeClassAllocator32LocalCacheINS_20SizeClassAllocator32INS_4AP32EEEE5DrainEPNS4_8PerClassEPS3_m>:
  405d80:	55                   	push   rbp
  405d81:	41 57                	push   r15
  405d83:	41 56                	push   r14
  405d85:	41 55                	push   r13
  405d87:	41 54                	push   r12
  405d89:	53                   	push   rbx
  405d8a:	48 83 ec 18          	sub    rsp,0x18
  405d8e:	49 89 f2             	mov    r10,rsi
  405d91:	4c 8b 26             	mov    r12,QWORD PTR [rsi]
  405d94:	4c 8b 7e 08          	mov    r15,QWORD PTR [rsi+0x8]
  405d98:	49 d1 ef             	shr    r15,1
  405d9b:	4d 39 e7             	cmp    r15,r12
  405d9e:	4d 0f 43 fc          	cmovae r15,r12
  405da2:	49 89 c9             	mov    r9,rcx
  405da5:	49 89 fd             	mov    r13,rdi
  405da8:	48 89 c8             	mov    rax,rcx
  405dab:	48 c1 e0 0a          	shl    rax,0xa
  405daf:	48 8b 4c 07 18       	mov    rcx,QWORD PTR [rdi+rax*1+0x18]
  405db4:	48 85 c9             	test   rcx,rcx
  405db7:	74 4d                	je     405e06 <_ZN11__sanitizer30SizeClassAllocator32LocalCacheINS_20SizeClassAllocator32INS_4AP32EEEE5DrainEPNS4_8PerClassEPS3_m+0x86>
  405db9:	48 83 f9 36          	cmp    rcx,0x36
  405dbd:	0f 83 e6 02 00 00    	jae    4060a9 <_ZN11__sanitizer30SizeClassAllocator32LocalCacheINS_20SizeClassAllocator32INS_4AP32EEEE5DrainEPNS4_8PerClassEPS3_m+0x329>
  405dc3:	49 89 ce             	mov    r14,rcx
  405dc6:	49 c1 e6 0a          	shl    r14,0xa
  405dca:	4b 8d 1c 2e          	lea    rbx,[r14+r13*1]
  405dce:	4b 8b 44 35 00       	mov    rax,QWORD PTR [r13+r14*1+0x0]
  405dd3:	48 85 c0             	test   rax,rax
  405dd6:	0f 84 7f 02 00 00    	je     40605b <_ZN11__sanitizer30SizeClassAllocator32LocalCacheINS_20SizeClassAllocator32INS_4AP32EEEE5DrainEPNS4_8PerClassEPS3_m+0x2db>
  405ddc:	48 8d 48 ff          	lea    rcx,[rax-0x1]
  405de0:	48 89 0b             	mov    QWORD PTR [rbx],rcx
  405de3:	48 8b 74 c3 10       	mov    rsi,QWORD PTR [rbx+rax*8+0x10]
  405de8:	48 8b 4c c3 18       	mov    rcx,QWORD PTR [rbx+rax*8+0x18]
  405ded:	0f 18 06             	prefetchnta BYTE PTR [rsi]
  405df0:	4b 8b 44 35 10       	mov    rax,QWORD PTR [r13+r14*1+0x10]
  405df5:	49 01 85 10 d8 00 00 	add    QWORD PTR [r13+0xd810],rax
  405dfc:	48 85 c9             	test   rcx,rcx
  405dff:	75 19                	jne    405e1a <_ZN11__sanitizer30SizeClassAllocator32LocalCacheINS_20SizeClassAllocator32INS_4AP32EEEE5DrainEPNS4_8PerClassEPS3_m+0x9a>
  405e01:	e9 86 02 00 00       	jmp    40608c <_ZN11__sanitizer30SizeClassAllocator32LocalCacheINS_20SizeClassAllocator32INS_4AP32EEEE5DrainEPNS4_8PerClassEPS3_m+0x30c>
  405e06:	4c 89 e0             	mov    rax,r12
  405e09:	4c 29 f8             	sub    rax,r15
  405e0c:	49 8b 4c c2 20       	mov    rcx,QWORD PTR [r10+rax*8+0x20]
  405e11:	48 85 c9             	test   rcx,rcx
  405e14:	0f 84 72 02 00 00    	je     40608c <_ZN11__sanitizer30SizeClassAllocator32LocalCacheINS_20SizeClassAllocator32INS_4AP32EEEE5DrainEPNS4_8PerClassEPS3_m+0x30c>
  405e1a:	4c 89 79 08          	mov    QWORD PTR [rcx+0x8],r15
  405e1e:	4d 85 ff             	test   r15,r15
  405e21:	0f 84 0e 02 00 00    	je     406035 <_ZN11__sanitizer30SizeClassAllocator32LocalCacheINS_20SizeClassAllocator32INS_4AP32EEEE5DrainEPNS4_8PerClassEPS3_m+0x2b5>
  405e27:	49 83 ff 04          	cmp    r15,0x4
  405e2b:	72 3c                	jb     405e69 <_ZN11__sanitizer30SizeClassAllocator32LocalCacheINS_20SizeClassAllocator32INS_4AP32EEEE5DrainEPNS4_8PerClassEPS3_m+0xe9>
  405e2d:	48 8d 41 10          	lea    rax,[rcx+0x10]
  405e31:	4e 8d 04 fd 00 00 00 	lea    r8,[r15*8+0x0]
  405e38:	00 
  405e39:	4b 8d 34 e2          	lea    rsi,[r10+r12*8]
  405e3d:	48 83 c6 20          	add    rsi,0x20
  405e41:	48 39 c6             	cmp    rsi,rax
  405e44:	0f 86 f3 00 00 00    	jbe    405f3d <_ZN11__sanitizer30SizeClassAllocator32LocalCacheINS_20SizeClassAllocator32INS_4AP32EEEE5DrainEPNS4_8PerClassEPS3_m+0x1bd>
  405e4a:	4a 8d 04 f9          	lea    rax,[rcx+r15*8]
  405e4e:	48 83 c0 10          	add    rax,0x10
  405e52:	4a 8d 34 e5 20 00 00 	lea    rsi,[r12*8+0x20]
  405e59:	00 
  405e5a:	4c 29 c6             	sub    rsi,r8
  405e5d:	4c 01 d6             	add    rsi,r10
  405e60:	48 39 c6             	cmp    rsi,rax
  405e63:	0f 83 d4 00 00 00    	jae    405f3d <_ZN11__sanitizer30SizeClassAllocator32LocalCacheINS_20SizeClassAllocator32INS_4AP32EEEE5DrainEPNS4_8PerClassEPS3_m+0x1bd>
  405e69:	31 c0                	xor    eax,eax
  405e6b:	44 89 fe             	mov    esi,r15d
  405e6e:	29 c6                	sub    esi,eax
  405e70:	48 89 c5             	mov    rbp,rax
  405e73:	48 f7 d5             	not    rbp
  405e76:	4c 01 fd             	add    rbp,r15
  405e79:	48 83 e6 07          	and    rsi,0x7
  405e7d:	74 34                	je     405eb3 <_ZN11__sanitizer30SizeClassAllocator32LocalCacheINS_20SizeClassAllocator32INS_4AP32EEEE5DrainEPNS4_8PerClassEPS3_m+0x133>
  405e7f:	4a 8d 3c e5 00 00 00 	lea    rdi,[r12*8+0x0]
  405e86:	00 
  405e87:	4a 8d 1c fd 00 00 00 	lea    rbx,[r15*8+0x0]
  405e8e:	00 
  405e8f:	48 29 df             	sub    rdi,rbx
  405e92:	4c 01 d7             	add    rdi,r10
  405e95:	48 83 c7 20          	add    rdi,0x20
  405e99:	0f 1f 80 00 00 00 00 	nop    DWORD PTR [rax+0x0]
  405ea0:	48 8b 1c c7          	mov    rbx,QWORD PTR [rdi+rax*8]
  405ea4:	48 89 5c c1 10       	mov    QWORD PTR [rcx+rax*8+0x10],rbx
  405ea9:	48 83 c0 01          	add    rax,0x1
  405ead:	48 83 c6 ff          	add    rsi,0xffffffffffffffff
  405eb1:	75 ed                	jne    405ea0 <_ZN11__sanitizer30SizeClassAllocator32LocalCacheINS_20SizeClassAllocator32INS_4AP32EEEE5DrainEPNS4_8PerClassEPS3_m+0x120>
  405eb3:	48 83 fd 07          	cmp    rbp,0x7
  405eb7:	0f 82 78 01 00 00    	jb     406035 <_ZN11__sanitizer30SizeClassAllocator32LocalCacheINS_20SizeClassAllocator32INS_4AP32EEEE5DrainEPNS4_8PerClassEPS3_m+0x2b5>
  405ebd:	49 c1 e4 03          	shl    r12,0x3
  405ec1:	4a 8d 34 fd 00 00 00 	lea    rsi,[r15*8+0x0]
  405ec8:	00 
  405ec9:	49 29 f4             	sub    r12,rsi
  405ecc:	4b 8d 3c 14          	lea    rdi,[r12+r10*1]
  405ed0:	48 83 c7 58          	add    rdi,0x58
  405ed4:	66 2e 0f 1f 84 00 00 	nop    WORD PTR cs:[rax+rax*1+0x0]
  405edb:	00 00 00 
  405ede:	66 90                	xchg   ax,ax
  405ee0:	48 8b 74 c7 c8       	mov    rsi,QWORD PTR [rdi+rax*8-0x38]
  405ee5:	48 89 74 c1 10       	mov    QWORD PTR [rcx+rax*8+0x10],rsi
  405eea:	48 8b 74 c7 d0       	mov    rsi,QWORD PTR [rdi+rax*8-0x30]
  405eef:	48 89 74 c1 18       	mov    QWORD PTR [rcx+rax*8+0x18],rsi
  405ef4:	48 8b 74 c7 d8       	mov    rsi,QWORD PTR [rdi+rax*8-0x28]
  405ef9:	48 89 74 c1 20       	mov    QWORD PTR [rcx+rax*8+0x20],rsi
  405efe:	48 8b 74 c7 e0       	mov    rsi,QWORD PTR [rdi+rax*8-0x20]
  405f03:	48 89 74 c1 28       	mov    QWORD PTR [rcx+rax*8+0x28],rsi
  405f08:	48 8b 74 c7 e8       	mov    rsi,QWORD PTR [rdi+rax*8-0x18]
  405f0d:	48 89 74 c1 30       	mov    QWORD PTR [rcx+rax*8+0x30],rsi
  405f12:	48 8b 74 c7 f0       	mov    rsi,QWORD PTR [rdi+rax*8-0x10]
  405f17:	48 89 74 c1 38       	mov    QWORD PTR [rcx+rax*8+0x38],rsi
  405f1c:	48 8b 74 c7 f8       	mov    rsi,QWORD PTR [rdi+rax*8-0x8]
  405f21:	48 89 74 c1 40       	mov    QWORD PTR [rcx+rax*8+0x40],rsi
  405f26:	48 8b 34 c7          	mov    rsi,QWORD PTR [rdi+rax*8]
  405f2a:	48 89 74 c1 48       	mov    QWORD PTR [rcx+rax*8+0x48],rsi
  405f2f:	48 83 c0 08          	add    rax,0x8
  405f33:	49 39 c7             	cmp    r15,rax
  405f36:	75 a8                	jne    405ee0 <_ZN11__sanitizer30SizeClassAllocator32LocalCacheINS_20SizeClassAllocator32INS_4AP32EEEE5DrainEPNS4_8PerClassEPS3_m+0x160>
  405f38:	e9 f8 00 00 00       	jmp    406035 <_ZN11__sanitizer30SizeClassAllocator32LocalCacheINS_20SizeClassAllocator32INS_4AP32EEEE5DrainEPNS4_8PerClassEPS3_m+0x2b5>
  405f3d:	48 b8 fc ff ff ff ff 	movabs rax,0x7ffffffffffffffc
  405f44:	ff ff 7f 
  405f47:	4c 21 f8             	and    rax,r15
  405f4a:	48 8d 70 fc          	lea    rsi,[rax-0x4]
  405f4e:	48 89 f7             	mov    rdi,rsi
  405f51:	48 c1 ef 02          	shr    rdi,0x2
  405f55:	48 83 c7 01          	add    rdi,0x1
  405f59:	89 fd                	mov    ebp,edi
  405f5b:	83 e5 03             	and    ebp,0x3
  405f5e:	48 83 fe 0c          	cmp    rsi,0xc
  405f62:	73 07                	jae    405f6b <_ZN11__sanitizer30SizeClassAllocator32LocalCacheINS_20SizeClassAllocator32INS_4AP32EEEE5DrainEPNS4_8PerClassEPS3_m+0x1eb>
  405f64:	31 ff                	xor    edi,edi
  405f66:	e9 81 00 00 00       	jmp    405fec <_ZN11__sanitizer30SizeClassAllocator32LocalCacheINS_20SizeClassAllocator32INS_4AP32EEEE5DrainEPNS4_8PerClassEPS3_m+0x26c>
  405f6b:	4a 8d 34 e5 00 00 00 	lea    rsi,[r12*8+0x0]
  405f72:	00 
  405f73:	4c 29 c6             	sub    rsi,r8
  405f76:	4a 8d 1c 16          	lea    rbx,[rsi+r10*1]
  405f7a:	48 81 c3 90 00 00 00 	add    rbx,0x90
  405f81:	48 89 ee             	mov    rsi,rbp
  405f84:	48 29 fe             	sub    rsi,rdi
  405f87:	31 ff                	xor    edi,edi
  405f89:	0f 1f 80 00 00 00 00 	nop    DWORD PTR [rax+0x0]
  405f90:	0f 10 44 fb 90       	movups xmm0,XMMWORD PTR [rbx+rdi*8-0x70]
  405f95:	0f 10 4c fb a0       	movups xmm1,XMMWORD PTR [rbx+rdi*8-0x60]
  405f9a:	0f 11 44 f9 10       	movups XMMWORD PTR [rcx+rdi*8+0x10],xmm0
  405f9f:	0f 11 4c f9 20       	movups XMMWORD PTR [rcx+rdi*8+0x20],xmm1
  405fa4:	0f 10 44 fb b0       	movups xmm0,XMMWORD PTR [rbx+rdi*8-0x50]
  405fa9:	0f 10 4c fb c0       	movups xmm1,XMMWORD PTR [rbx+rdi*8-0x40]
  405fae:	0f 11 44 f9 30       	movups XMMWORD PTR [rcx+rdi*8+0x30],xmm0
  405fb3:	0f 11 4c f9 40       	movups XMMWORD PTR [rcx+rdi*8+0x40],xmm1
  405fb8:	0f 10 44 fb d0       	movups xmm0,XMMWORD PTR [rbx+rdi*8-0x30]
  405fbd:	0f 10 4c fb e0       	movups xmm1,XMMWORD PTR [rbx+rdi*8-0x20]
  405fc2:	0f 11 44 f9 50       	movups XMMWORD PTR [rcx+rdi*8+0x50],xmm0
  405fc7:	0f 11 4c f9 60       	movups XMMWORD PTR [rcx+rdi*8+0x60],xmm1
  405fcc:	0f 10 44 fb f0       	movups xmm0,XMMWORD PTR [rbx+rdi*8-0x10]
  405fd1:	0f 10 0c fb          	movups xmm1,XMMWORD PTR [rbx+rdi*8]
  405fd5:	0f 11 44 f9 70       	movups XMMWORD PTR [rcx+rdi*8+0x70],xmm0
  405fda:	0f 11 8c f9 80 00 00 	movups XMMWORD PTR [rcx+rdi*8+0x80],xmm1
  405fe1:	00 
  405fe2:	48 83 c7 10          	add    rdi,0x10
  405fe6:	48 83 c6 04          	add    rsi,0x4
  405fea:	75 a4                	jne    405f90 <_ZN11__sanitizer30SizeClassAllocator32LocalCacheINS_20SizeClassAllocator32INS_4AP32EEEE5DrainEPNS4_8PerClassEPS3_m+0x210>
  405fec:	48 85 ed             	test   rbp,rbp
  405fef:	74 3b                	je     40602c <_ZN11__sanitizer30SizeClassAllocator32LocalCacheINS_20SizeClassAllocator32INS_4AP32EEEE5DrainEPNS4_8PerClassEPS3_m+0x2ac>
  405ff1:	48 c1 e7 03          	shl    rdi,0x3
  405ff5:	4a 8d 34 e5 00 00 00 	lea    rsi,[r12*8+0x0]
  405ffc:	00 
  405ffd:	4c 29 c6             	sub    rsi,r8
  406000:	4c 01 d6             	add    rsi,r10
  406003:	48 83 c6 30          	add    rsi,0x30
  406007:	48 f7 dd             	neg    rbp
  40600a:	66 0f 1f 44 00 00    	nop    WORD PTR [rax+rax*1+0x0]
  406010:	0f 10 44 3e f0       	movups xmm0,XMMWORD PTR [rsi+rdi*1-0x10]
  406015:	0f 10 0c 3e          	movups xmm1,XMMWORD PTR [rsi+rdi*1]
  406019:	0f 11 44 39 10       	movups XMMWORD PTR [rcx+rdi*1+0x10],xmm0
  40601e:	0f 11 4c 39 20       	movups XMMWORD PTR [rcx+rdi*1+0x20],xmm1
  406023:	48 83 c7 20          	add    rdi,0x20
  406027:	48 ff c5             	inc    rbp
  40602a:	75 e4                	jne    406010 <_ZN11__sanitizer30SizeClassAllocator32LocalCacheINS_20SizeClassAllocator32INS_4AP32EEEE5DrainEPNS4_8PerClassEPS3_m+0x290>
  40602c:	49 39 c7             	cmp    r15,rax
  40602f:	0f 85 36 fe ff ff    	jne    405e6b <_ZN11__sanitizer30SizeClassAllocator32LocalCacheINS_20SizeClassAllocator32INS_4AP32EEEE5DrainEPNS4_8PerClassEPS3_m+0xeb>
  406035:	4d 29 3a             	sub    QWORD PTR [r10],r15
  406038:	49 81 c5 00 d8 00 00 	add    r13,0xd800
  40603f:	48 89 d7             	mov    rdi,rdx
  406042:	4c 89 ee             	mov    rsi,r13
  406045:	4c 89 ca             	mov    rdx,r9
  406048:	48 83 c4 18          	add    rsp,0x18
  40604c:	5b                   	pop    rbx
  40604d:	41 5c                	pop    r12
  40604f:	41 5d                	pop    r13
  406051:	41 5e                	pop    r14
  406053:	41 5f                	pop    r15
  406055:	5d                   	pop    rbp
  406056:	e9 75 00 00 00       	jmp    4060d0 <_ZN11__sanitizer20SizeClassAllocator32INS_4AP32EE15DeallocateBatchEPNS_14AllocatorStatsEmPNS2_13TransferBatchE>
  40605b:	4c 89 ef             	mov    rdi,r13
  40605e:	48 89 de             	mov    rsi,rbx
  406061:	4c 89 4c 24 10       	mov    QWORD PTR [rsp+0x10],r9
  406066:	48 89 d5             	mov    rbp,rdx
  406069:	4c 89 54 24 08       	mov    QWORD PTR [rsp+0x8],r10
  40606e:	e8 2d f2 ff ff       	call   4052a0 <_ZN11__sanitizer30SizeClassAllocator32LocalCacheINS_20SizeClassAllocator32INS_4AP32EEEE6RefillEPNS4_8PerClassEPS3_m>
  406073:	4c 8b 54 24 08       	mov    r10,QWORD PTR [rsp+0x8]
  406078:	4c 8b 4c 24 10       	mov    r9,QWORD PTR [rsp+0x10]
  40607d:	84 c0                	test   al,al
  40607f:	74 0b                	je     40608c <_ZN11__sanitizer30SizeClassAllocator32LocalCacheINS_20SizeClassAllocator32INS_4AP32EEEE5DrainEPNS4_8PerClassEPS3_m+0x30c>
  406081:	48 89 ea             	mov    rdx,rbp
  406084:	48 8b 03             	mov    rax,QWORD PTR [rbx]
  406087:	e9 50 fd ff ff       	jmp    405ddc <_ZN11__sanitizer30SizeClassAllocator32LocalCacheINS_20SizeClassAllocator32INS_4AP32EEEE5DrainEPNS4_8PerClassEPS3_m+0x5c>
  40608c:	48 8d 05 95 61 03 00 	lea    rax,[rip+0x36195]        # 43c228 <_ZN11__sanitizer17SanitizerToolNameE>
  406093:	48 8b 30             	mov    rsi,QWORD PTR [rax]
  406096:	48 8d 3d 69 2a 02 00 	lea    rdi,[rip+0x22a69]        # 428b06 <_IO_stdin_used+0xb06>
  40609d:	31 c0                	xor    eax,eax
  40609f:	e8 bc b4 00 00       	call   411560 <_ZN11__sanitizer6ReportEPKcz>
  4060a4:	e8 e7 eb 00 00       	call   414c90 <_ZN11__sanitizer3DieEv>
  4060a9:	48 8d 3d 51 27 02 00 	lea    rdi,[rip+0x22751]        # 428801 <_IO_stdin_used+0x801>
  4060b0:	48 8d 15 d5 27 02 00 	lea    rdx,[rip+0x227d5]        # 42888c <_IO_stdin_used+0x88c>
  4060b7:	41 b8 36 00 00 00    	mov    r8d,0x36
  4060bd:	be 9a 00 00 00       	mov    esi,0x9a
  4060c2:	e8 a9 ec 00 00       	call   414d70 <_ZN11__sanitizer11CheckFailedEPKciS1_yy>
  4060c7:	66 0f 1f 84 00 00 00 	nop    WORD PTR [rax+rax*1+0x0]
  4060ce:	00 00 

00000000004060d0 <_ZN11__sanitizer20SizeClassAllocator32INS_4AP32EE15DeallocateBatchEPNS_14AllocatorStatsEmPNS2_13TransferBatchE>:
  4060d0:	41 57                	push   r15
  4060d2:	41 56                	push   r14
  4060d4:	41 54                	push   r12
  4060d6:	53                   	push   rbx
  4060d7:	50                   	push   rax
  4060d8:	48 83 79 08 00       	cmp    QWORD PTR [rcx+0x8],0x0
  4060dd:	0f 84 8c 00 00 00    	je     40616f <_ZN11__sanitizer20SizeClassAllocator32INS_4AP32EE15DeallocateBatchEPNS_14AllocatorStatsEmPNS2_13TransferBatchE+0x9f>
  4060e3:	49 89 cf             	mov    r15,rcx
  4060e6:	48 89 d3             	mov    rbx,rdx
  4060e9:	49 89 fc             	mov    r12,rdi
  4060ec:	48 c1 e3 06          	shl    rbx,0x6
  4060f0:	4c 8d 34 1f          	lea    r14,[rdi+rbx*1]
  4060f4:	49 81 c6 40 00 04 00 	add    r14,0x40040
  4060fb:	b0 01                	mov    al,0x1
  4060fd:	86 84 1f 40 00 04 00 	xchg   BYTE PTR [rdi+rbx*1+0x40040],al
  406104:	84 c0                	test   al,al
  406106:	74 08                	je     406110 <_ZN11__sanitizer20SizeClassAllocator32INS_4AP32EE15DeallocateBatchEPNS_14AllocatorStatsEmPNS2_13TransferBatchE+0x40>
  406108:	4c 89 f7             	mov    rdi,r14
  40610b:	e8 f0 05 00 00       	call   406700 <_ZN11__sanitizer15StaticSpinMutex8LockSlowEv>
  406110:	49 8d 04 1c          	lea    rax,[r12+rbx*1]
  406114:	48 05 48 00 04 00    	add    rax,0x40048
  40611a:	49 8b 8c 1c 48 00 04 	mov    rcx,QWORD PTR [r12+rbx*1+0x40048]
  406121:	00 
  406122:	48 85 c9             	test   rcx,rcx
  406125:	74 19                	je     406140 <_ZN11__sanitizer20SizeClassAllocator32INS_4AP32EE15DeallocateBatchEPNS_14AllocatorStatsEmPNS2_13TransferBatchE+0x70>
  406127:	49 8b 94 1c 50 00 04 	mov    rdx,QWORD PTR [r12+rbx*1+0x40050]
  40612e:	00 
  40612f:	49 89 17             	mov    QWORD PTR [r15],rdx
  406132:	4d 89 bc 1c 50 00 04 	mov    QWORD PTR [r12+rbx*1+0x40050],r15
  406139:	00 
  40613a:	48 83 c1 01          	add    rcx,0x1
  40613e:	eb 1c                	jmp    40615c <_ZN11__sanitizer20SizeClassAllocator32INS_4AP32EE15DeallocateBatchEPNS_14AllocatorStatsEmPNS2_13TransferBatchE+0x8c>
  406140:	49 c7 07 00 00 00 00 	mov    QWORD PTR [r15],0x0
  406147:	4d 89 bc 1c 58 00 04 	mov    QWORD PTR [r12+rbx*1+0x40058],r15
  40614e:	00 
  40614f:	4d 89 bc 1c 50 00 04 	mov    QWORD PTR [r12+rbx*1+0x40050],r15
  406156:	00 
  406157:	b9 01 00 00 00       	mov    ecx,0x1
  40615c:	48 89 08             	mov    QWORD PTR [rax],rcx
  40615f:	41 c6 06 00          	mov    BYTE PTR [r14],0x0
  406163:	48 83 c4 08          	add    rsp,0x8
  406167:	5b                   	pop    rbx
  406168:	41 5c                	pop    r12
  40616a:	41 5e                	pop    r14
  40616c:	41 5f                	pop    r15
  40616e:	c3                   	ret    
  40616f:	48 8d 3d c0 27 02 00 	lea    rdi,[rip+0x227c0]        # 428936 <_IO_stdin_used+0x936>
  406176:	48 8d 15 2e 27 02 00 	lea    rdx,[rip+0x2272e]        # 4288ab <_IO_stdin_used+0x8ab>
  40617d:	be b9 00 00 00       	mov    esi,0xb9
  406182:	31 c9                	xor    ecx,ecx
  406184:	45 31 c0             	xor    r8d,r8d
  406187:	e8 e4 eb 00 00       	call   414d70 <_ZN11__sanitizer11CheckFailedEPKciS1_yy>
  40618c:	0f 1f 40 00          	nop    DWORD PTR [rax+0x0]

0000000000406190 <_ZN11__sanitizer17CombinedAllocatorINS_20SizeClassAllocator32INS_4AP32EEENS_32LargeMmapAllocatorPtrArrayStaticEE10ReallocateEPNS_30SizeClassAllocator32LocalCacheIS3_EEPvmm>:
  406190:	55                   	push   rbp
  406191:	41 57                	push   r15
  406193:	41 56                	push   r14
  406195:	41 55                	push   r13
  406197:	41 54                	push   r12
  406199:	53                   	push   rbx
  40619a:	50                   	push   rax
  40619b:	4d 89 c4             	mov    r12,r8
  40619e:	48 89 cb             	mov    rbx,rcx
  4061a1:	49 89 f7             	mov    r15,rsi
  4061a4:	49 89 fd             	mov    r13,rdi
  4061a7:	48 85 d2             	test   rdx,rdx
  4061aa:	0f 84 cf 00 00 00    	je     40627f <_ZN11__sanitizer17CombinedAllocatorINS_20SizeClassAllocator32INS_4AP32EEENS_32LargeMmapAllocatorPtrArrayStaticEE10ReallocateEPNS_30SizeClassAllocator32LocalCacheIS3_EEPvmm+0xef>
  4061b0:	49 89 d6             	mov    r14,rdx
  4061b3:	48 b8 ff ff ff ff ff 	movabs rax,0x7fffffffffff
  4061ba:	7f 00 00 
  4061bd:	48 85 db             	test   rbx,rbx
  4061c0:	0f 84 f3 00 00 00    	je     4062b9 <_ZN11__sanitizer17CombinedAllocatorINS_20SizeClassAllocator32INS_4AP32EEENS_32LargeMmapAllocatorPtrArrayStaticEE10ReallocateEPNS_30SizeClassAllocator32LocalCacheIS3_EEPvmm+0x129>
  4061c6:	49 39 c6             	cmp    r14,rax
  4061c9:	77 1d                	ja     4061e8 <_ZN11__sanitizer17CombinedAllocatorINS_20SizeClassAllocator32INS_4AP32EEENS_32LargeMmapAllocatorPtrArrayStaticEE10ReallocateEPNS_30SizeClassAllocator32LocalCacheIS3_EEPvmm+0x58>
  4061cb:	4c 89 f0             	mov    rax,r14
  4061ce:	48 c1 e8 20          	shr    rax,0x20
  4061d2:	49 8b 44 c5 00       	mov    rax,QWORD PTR [r13+rax*8+0x0]
  4061d7:	48 85 c0             	test   rax,rax
  4061da:	74 0c                	je     4061e8 <_ZN11__sanitizer17CombinedAllocatorINS_20SizeClassAllocator32INS_4AP32EEENS_32LargeMmapAllocatorPtrArrayStaticEE10ReallocateEPNS_30SizeClassAllocator32LocalCacheIS3_EEPvmm+0x58>
  4061dc:	44 89 f1             	mov    ecx,r14d
  4061df:	c1 e9 14             	shr    ecx,0x14
  4061e2:	80 3c 08 00          	cmp    BYTE PTR [rax+rcx*1],0x0
  4061e6:	75 18                	jne    406200 <_ZN11__sanitizer17CombinedAllocatorINS_20SizeClassAllocator32INS_4AP32EEENS_32LargeMmapAllocatorPtrArrayStaticEE10ReallocateEPNS_30SizeClassAllocator32LocalCacheIS3_EEPvmm+0x70>
  4061e8:	49 8d bd c0 0d 04 00 	lea    rdi,[r13+0x40dc0]
  4061ef:	4c 89 f6             	mov    rsi,r14
  4061f2:	e8 79 03 00 00       	call   406570 <_ZN11__sanitizer18LargeMmapAllocatorINS_20NoOpMapUnmapCallbackENS_32LargeMmapAllocatorPtrArrayStaticENS_21LocalAddressSpaceViewEE13GetBlockBeginEPKv>
  4061f7:	48 85 c0             	test   rax,rax
  4061fa:	0f 84 3d 01 00 00    	je     40633d <_ZN11__sanitizer17CombinedAllocatorINS_20SizeClassAllocator32INS_4AP32EEENS_32LargeMmapAllocatorPtrArrayStaticEE10ReallocateEPNS_30SizeClassAllocator32LocalCacheIS3_EEPvmm+0x1ad>
  406200:	4c 89 ef             	mov    rdi,r13
  406203:	4c 89 f6             	mov    rsi,r14
  406206:	e8 55 01 00 00       	call   406360 <_ZN11__sanitizer17CombinedAllocatorINS_20SizeClassAllocator32INS_4AP32EEENS_32LargeMmapAllocatorPtrArrayStaticEE24GetActuallyAllocatedSizeEPv>
  40620b:	48 89 c5             	mov    rbp,rax
  40620e:	4c 89 ef             	mov    rdi,r13
  406211:	4c 89 fe             	mov    rsi,r15
  406214:	48 89 da             	mov    rdx,rbx
  406217:	4c 89 e1             	mov    rcx,r12
  40621a:	e8 01 ec ff ff       	call   404e20 <_ZN11__sanitizer17CombinedAllocatorINS_20SizeClassAllocator32INS_4AP32EEENS_32LargeMmapAllocatorPtrArrayStaticEE8AllocateEPNS_30SizeClassAllocator32LocalCacheIS3_EEmm>
  40621f:	49 89 c4             	mov    r12,rax
  406222:	48 85 c0             	test   rax,rax
  406225:	74 15                	je     40623c <_ZN11__sanitizer17CombinedAllocatorINS_20SizeClassAllocator32INS_4AP32EEENS_32LargeMmapAllocatorPtrArrayStaticEE10ReallocateEPNS_30SizeClassAllocator32LocalCacheIS3_EEPvmm+0xac>
  406227:	48 39 dd             	cmp    rbp,rbx
  40622a:	48 0f 47 eb          	cmova  rbp,rbx
  40622e:	4c 89 e7             	mov    rdi,r12
  406231:	4c 89 f6             	mov    rsi,r14
  406234:	48 89 ea             	mov    rdx,rbp
  406237:	e8 d4 5f 00 00       	call   40c210 <_ZN11__sanitizer15internal_memcpyEPvPKvm>
  40623c:	48 b8 ff ff ff ff ff 	movabs rax,0x7fffffffffff
  406243:	7f 00 00 
  406246:	49 39 c6             	cmp    r14,rax
  406249:	77 53                	ja     40629e <_ZN11__sanitizer17CombinedAllocatorINS_20SizeClassAllocator32INS_4AP32EEENS_32LargeMmapAllocatorPtrArrayStaticEE10ReallocateEPNS_30SizeClassAllocator32LocalCacheIS3_EEPvmm+0x10e>
  40624b:	4c 89 f0             	mov    rax,r14
  40624e:	48 c1 e8 20          	shr    rax,0x20
  406252:	49 8b 54 c5 00       	mov    rdx,QWORD PTR [r13+rax*8+0x0]
  406257:	48 85 d2             	test   rdx,rdx
  40625a:	74 42                	je     40629e <_ZN11__sanitizer17CombinedAllocatorINS_20SizeClassAllocator32INS_4AP32EEENS_32LargeMmapAllocatorPtrArrayStaticEE10ReallocateEPNS_30SizeClassAllocator32LocalCacheIS3_EEPvmm+0x10e>
  40625c:	44 89 f1             	mov    ecx,r14d
  40625f:	c1 e9 14             	shr    ecx,0x14
  406262:	80 3c 0a 00          	cmp    BYTE PTR [rdx+rcx*1],0x0
  406266:	74 36                	je     40629e <_ZN11__sanitizer17CombinedAllocatorINS_20SizeClassAllocator32INS_4AP32EEENS_32LargeMmapAllocatorPtrArrayStaticEE10ReallocateEPNS_30SizeClassAllocator32LocalCacheIS3_EEPvmm+0x10e>
  406268:	49 8b 44 c5 00       	mov    rax,QWORD PTR [r13+rax*8+0x0]
  40626d:	48 85 c0             	test   rax,rax
  406270:	0f 84 93 00 00 00    	je     406309 <_ZN11__sanitizer17CombinedAllocatorINS_20SizeClassAllocator32INS_4AP32EEENS_32LargeMmapAllocatorPtrArrayStaticEE10ReallocateEPNS_30SizeClassAllocator32LocalCacheIS3_EEPvmm+0x179>
  406276:	0f b6 14 08          	movzx  edx,BYTE PTR [rax+rcx*1]
  40627a:	e9 8c 00 00 00       	jmp    40630b <_ZN11__sanitizer17CombinedAllocatorINS_20SizeClassAllocator32INS_4AP32EEENS_32LargeMmapAllocatorPtrArrayStaticEE10ReallocateEPNS_30SizeClassAllocator32LocalCacheIS3_EEPvmm+0x17b>
  40627f:	4c 89 ef             	mov    rdi,r13
  406282:	4c 89 fe             	mov    rsi,r15
  406285:	48 89 da             	mov    rdx,rbx
  406288:	4c 89 e1             	mov    rcx,r12
  40628b:	48 83 c4 08          	add    rsp,0x8
  40628f:	5b                   	pop    rbx
  406290:	41 5c                	pop    r12
  406292:	41 5d                	pop    r13
  406294:	41 5e                	pop    r14
  406296:	41 5f                	pop    r15
  406298:	5d                   	pop    rbp
  406299:	e9 82 eb ff ff       	jmp    404e20 <_ZN11__sanitizer17CombinedAllocatorINS_20SizeClassAllocator32INS_4AP32EEENS_32LargeMmapAllocatorPtrArrayStaticEE8AllocateEPNS_30SizeClassAllocator32LocalCacheIS3_EEmm>
  40629e:	49 8d bd c0 0d 04 00 	lea    rdi,[r13+0x40dc0]
  4062a5:	49 81 c5 08 10 08 00 	add    r13,0x81008
  4062ac:	4c 89 ee             	mov    rsi,r13
  4062af:	4c 89 f2             	mov    rdx,r14
  4062b2:	e8 a9 01 00 00       	call   406460 <_ZN11__sanitizer18LargeMmapAllocatorINS_20NoOpMapUnmapCallbackENS_32LargeMmapAllocatorPtrArrayStaticENS_21LocalAddressSpaceViewEE10DeallocateEPNS_14AllocatorStatsEPv>
  4062b7:	eb 60                	jmp    406319 <_ZN11__sanitizer17CombinedAllocatorINS_20SizeClassAllocator32INS_4AP32EEENS_32LargeMmapAllocatorPtrArrayStaticEE10ReallocateEPNS_30SizeClassAllocator32LocalCacheIS3_EEPvmm+0x189>
  4062b9:	49 39 c6             	cmp    r14,rax
  4062bc:	77 2d                	ja     4062eb <_ZN11__sanitizer17CombinedAllocatorINS_20SizeClassAllocator32INS_4AP32EEENS_32LargeMmapAllocatorPtrArrayStaticEE10ReallocateEPNS_30SizeClassAllocator32LocalCacheIS3_EEPvmm+0x15b>
  4062be:	4c 89 f0             	mov    rax,r14
  4062c1:	48 c1 e8 20          	shr    rax,0x20
  4062c5:	49 8b 54 c5 00       	mov    rdx,QWORD PTR [r13+rax*8+0x0]
  4062ca:	48 85 d2             	test   rdx,rdx
  4062cd:	74 1c                	je     4062eb <_ZN11__sanitizer17CombinedAllocatorINS_20SizeClassAllocator32INS_4AP32EEENS_32LargeMmapAllocatorPtrArrayStaticEE10ReallocateEPNS_30SizeClassAllocator32LocalCacheIS3_EEPvmm+0x15b>
  4062cf:	44 89 f1             	mov    ecx,r14d
  4062d2:	c1 e9 14             	shr    ecx,0x14
  4062d5:	80 3c 0a 00          	cmp    BYTE PTR [rdx+rcx*1],0x0
  4062d9:	74 10                	je     4062eb <_ZN11__sanitizer17CombinedAllocatorINS_20SizeClassAllocator32INS_4AP32EEENS_32LargeMmapAllocatorPtrArrayStaticEE10ReallocateEPNS_30SizeClassAllocator32LocalCacheIS3_EEPvmm+0x15b>
  4062db:	49 8b 44 c5 00       	mov    rax,QWORD PTR [r13+rax*8+0x0]
  4062e0:	48 85 c0             	test   rax,rax
  4062e3:	74 46                	je     40632b <_ZN11__sanitizer17CombinedAllocatorINS_20SizeClassAllocator32INS_4AP32EEENS_32LargeMmapAllocatorPtrArrayStaticEE10ReallocateEPNS_30SizeClassAllocator32LocalCacheIS3_EEPvmm+0x19b>
  4062e5:	0f b6 14 08          	movzx  edx,BYTE PTR [rax+rcx*1]
  4062e9:	eb 42                	jmp    40632d <_ZN11__sanitizer17CombinedAllocatorINS_20SizeClassAllocator32INS_4AP32EEENS_32LargeMmapAllocatorPtrArrayStaticEE10ReallocateEPNS_30SizeClassAllocator32LocalCacheIS3_EEPvmm+0x19d>
  4062eb:	49 8d bd c0 0d 04 00 	lea    rdi,[r13+0x40dc0]
  4062f2:	49 81 c5 08 10 08 00 	add    r13,0x81008
  4062f9:	4c 89 ee             	mov    rsi,r13
  4062fc:	4c 89 f2             	mov    rdx,r14
  4062ff:	e8 5c 01 00 00       	call   406460 <_ZN11__sanitizer18LargeMmapAllocatorINS_20NoOpMapUnmapCallbackENS_32LargeMmapAllocatorPtrArrayStaticENS_21LocalAddressSpaceViewEE10DeallocateEPNS_14AllocatorStatsEPv>
  406304:	45 31 e4             	xor    r12d,r12d
  406307:	eb 10                	jmp    406319 <_ZN11__sanitizer17CombinedAllocatorINS_20SizeClassAllocator32INS_4AP32EEENS_32LargeMmapAllocatorPtrArrayStaticEE10ReallocateEPNS_30SizeClassAllocator32LocalCacheIS3_EEPvmm+0x189>
  406309:	31 d2                	xor    edx,edx
  40630b:	4c 89 ff             	mov    rdi,r15
  40630e:	4c 89 ee             	mov    rsi,r13
  406311:	4c 89 f1             	mov    rcx,r14
  406314:	e8 b7 f8 ff ff       	call   405bd0 <_ZN11__sanitizer30SizeClassAllocator32LocalCacheINS_20SizeClassAllocator32INS_4AP32EEEE10DeallocateEPS3_mPv>
  406319:	4c 89 e0             	mov    rax,r12
  40631c:	48 83 c4 08          	add    rsp,0x8
  406320:	5b                   	pop    rbx
  406321:	41 5c                	pop    r12
  406323:	41 5d                	pop    r13
  406325:	41 5e                	pop    r14
  406327:	41 5f                	pop    r15
  406329:	5d                   	pop    rbp
  40632a:	c3                   	ret    
  40632b:	31 d2                	xor    edx,edx
  40632d:	4c 89 ff             	mov    rdi,r15
  406330:	4c 89 ee             	mov    rsi,r13
  406333:	4c 89 f1             	mov    rcx,r14
  406336:	e8 95 f8 ff ff       	call   405bd0 <_ZN11__sanitizer30SizeClassAllocator32LocalCacheINS_20SizeClassAllocator32INS_4AP32EEEE10DeallocateEPS3_mPv>
  40633b:	eb c7                	jmp    406304 <_ZN11__sanitizer17CombinedAllocatorINS_20SizeClassAllocator32INS_4AP32EEENS_32LargeMmapAllocatorPtrArrayStaticEE10ReallocateEPNS_30SizeClassAllocator32LocalCacheIS3_EEPvmm+0x174>
  40633d:	48 8d 3d 12 24 02 00 	lea    rdi,[rip+0x22412]        # 428756 <_IO_stdin_used+0x756>
  406344:	48 8d 15 17 2a 02 00 	lea    rdx,[rip+0x22a17]        # 428d62 <_IO_stdin_used+0xd62>
  40634b:	be 69 00 00 00       	mov    esi,0x69
  406350:	31 c9                	xor    ecx,ecx
  406352:	45 31 c0             	xor    r8d,r8d
  406355:	e8 16 ea 00 00       	call   414d70 <_ZN11__sanitizer11CheckFailedEPKciS1_yy>
  40635a:	66 0f 1f 44 00 00    	nop    WORD PTR [rax+rax*1+0x0]

0000000000406360 <_ZN11__sanitizer17CombinedAllocatorINS_20SizeClassAllocator32INS_4AP32EEENS_32LargeMmapAllocatorPtrArrayStaticEE24GetActuallyAllocatedSizeEPv>:
  406360:	50                   	push   rax
  406361:	48 89 f0             	mov    rax,rsi
  406364:	48 c1 e8 2f          	shr    rax,0x2f
  406368:	75 78                	jne    4063e2 <_ZN11__sanitizer17CombinedAllocatorINS_20SizeClassAllocator32INS_4AP32EEENS_32LargeMmapAllocatorPtrArrayStaticEE24GetActuallyAllocatedSizeEPv+0x82>
  40636a:	48 89 f0             	mov    rax,rsi
  40636d:	48 c1 e8 20          	shr    rax,0x20
  406371:	48 8b 14 c7          	mov    rdx,QWORD PTR [rdi+rax*8]
  406375:	48 85 d2             	test   rdx,rdx
  406378:	74 68                	je     4063e2 <_ZN11__sanitizer17CombinedAllocatorINS_20SizeClassAllocator32INS_4AP32EEENS_32LargeMmapAllocatorPtrArrayStaticEE24GetActuallyAllocatedSizeEPv+0x82>
  40637a:	89 f1                	mov    ecx,esi
  40637c:	c1 e9 14             	shr    ecx,0x14
  40637f:	80 3c 0a 00          	cmp    BYTE PTR [rdx+rcx*1],0x0
  406383:	74 5d                	je     4063e2 <_ZN11__sanitizer17CombinedAllocatorINS_20SizeClassAllocator32INS_4AP32EEENS_32LargeMmapAllocatorPtrArrayStaticEE24GetActuallyAllocatedSizeEPv+0x82>
  406385:	48 8b 14 c7          	mov    rdx,QWORD PTR [rdi+rax*8]
  406389:	48 85 d2             	test   rdx,rdx
  40638c:	0f 84 a5 00 00 00    	je     406437 <_ZN11__sanitizer17CombinedAllocatorINS_20SizeClassAllocator32INS_4AP32EEENS_32LargeMmapAllocatorPtrArrayStaticEE24GetActuallyAllocatedSizeEPv+0xd7>
  406392:	80 3c 0a 00          	cmp    BYTE PTR [rdx+rcx*1],0x0
  406396:	0f 84 9b 00 00 00    	je     406437 <_ZN11__sanitizer17CombinedAllocatorINS_20SizeClassAllocator32INS_4AP32EEENS_32LargeMmapAllocatorPtrArrayStaticEE24GetActuallyAllocatedSizeEPv+0xd7>
  40639c:	48 8b 04 c7          	mov    rax,QWORD PTR [rdi+rax*8]
  4063a0:	48 85 c0             	test   rax,rax
  4063a3:	74 61                	je     406406 <_ZN11__sanitizer17CombinedAllocatorINS_20SizeClassAllocator32INS_4AP32EEENS_32LargeMmapAllocatorPtrArrayStaticEE24GetActuallyAllocatedSizeEPv+0xa6>
  4063a5:	0f b6 14 08          	movzx  edx,BYTE PTR [rax+rcx*1]
  4063a9:	b8 00 02 00 00       	mov    eax,0x200
  4063ae:	48 83 fa 35          	cmp    rdx,0x35
  4063b2:	74 50                	je     406404 <_ZN11__sanitizer17CombinedAllocatorINS_20SizeClassAllocator32INS_4AP32EEENS_32LargeMmapAllocatorPtrArrayStaticEE24GetActuallyAllocatedSizeEPv+0xa4>
  4063b4:	80 fa 10             	cmp    dl,0x10
  4063b7:	76 4f                	jbe    406408 <_ZN11__sanitizer17CombinedAllocatorINS_20SizeClassAllocator32INS_4AP32EEENS_32LargeMmapAllocatorPtrArrayStaticEE24GetActuallyAllocatedSizeEPv+0xa8>
  4063b9:	48 83 c2 f0          	add    rdx,0xfffffffffffffff0
  4063bd:	48 89 d1             	mov    rcx,rdx
  4063c0:	48 c1 e9 02          	shr    rcx,0x2
  4063c4:	b8 00 01 00 00       	mov    eax,0x100
  4063c9:	48 d3 e0             	shl    rax,cl
  4063cc:	48 89 c1             	mov    rcx,rax
  4063cf:	48 c1 e9 02          	shr    rcx,0x2
  4063d3:	83 e2 03             	and    edx,0x3
  4063d6:	48 0f af d1          	imul   rdx,rcx
  4063da:	48 01 c2             	add    rdx,rax
  4063dd:	48 89 d0             	mov    rax,rdx
  4063e0:	59                   	pop    rcx
  4063e1:	c3                   	ret    
  4063e2:	48 8b 87 c0 0d 04 00 	mov    rax,QWORD PTR [rdi+0x40dc0]
  4063e9:	48 8d 48 ff          	lea    rcx,[rax-0x1]
  4063ed:	48 85 f1             	test   rcx,rsi
  4063f0:	75 1f                	jne    406411 <_ZN11__sanitizer17CombinedAllocatorINS_20SizeClassAllocator32INS_4AP32EEENS_32LargeMmapAllocatorPtrArrayStaticEE24GetActuallyAllocatedSizeEPv+0xb1>
  4063f2:	48 85 c8             	test   rax,rcx
  4063f5:	75 2f                	jne    406426 <_ZN11__sanitizer17CombinedAllocatorINS_20SizeClassAllocator32INS_4AP32EEENS_32LargeMmapAllocatorPtrArrayStaticEE24GetActuallyAllocatedSizeEPv+0xc6>
  4063f7:	48 29 c6             	sub    rsi,rax
  4063fa:	48 03 4e 10          	add    rcx,QWORD PTR [rsi+0x10]
  4063fe:	48 f7 d8             	neg    rax
  406401:	48 21 c8             	and    rax,rcx
  406404:	59                   	pop    rcx
  406405:	c3                   	ret    
  406406:	31 d2                	xor    edx,edx
  406408:	48 c1 e2 04          	shl    rdx,0x4
  40640c:	48 89 d0             	mov    rax,rdx
  40640f:	59                   	pop    rcx
  406410:	c3                   	ret    
  406411:	48 8d 3d 3a 27 02 00 	lea    rdi,[rip+0x2273a]        # 428b52 <_IO_stdin_used+0xb52>
  406418:	48 8d 15 b6 28 02 00 	lea    rdx,[rip+0x228b6]        # 428cd5 <_IO_stdin_used+0xcd5>
  40641f:	be 2d 01 00 00       	mov    esi,0x12d
  406424:	eb 24                	jmp    40644a <_ZN11__sanitizer17CombinedAllocatorINS_20SizeClassAllocator32INS_4AP32EEENS_32LargeMmapAllocatorPtrArrayStaticEE24GetActuallyAllocatedSizeEPv+0xea>
  406426:	48 8d 3d 1d 2a 02 00 	lea    rdi,[rip+0x22a1d]        # 428e4a <_IO_stdin_used+0xe4a>
  40642d:	e8 9e 2e 00 00       	call   4092d0 <_ZN11__sanitizer8RawWriteEPKc>
  406432:	e8 59 e8 00 00       	call   414c90 <_ZN11__sanitizer3DieEv>
  406437:	48 8d 3d f8 24 02 00 	lea    rdi,[rip+0x224f8]        # 428936 <_IO_stdin_used+0x936>
  40643e:	48 8d 15 1d 29 02 00 	lea    rdx,[rip+0x2291d]        # 428d62 <_IO_stdin_used+0xd62>
  406445:	be d8 00 00 00       	mov    esi,0xd8
  40644a:	31 c9                	xor    ecx,ecx
  40644c:	45 31 c0             	xor    r8d,r8d
  40644f:	e8 1c e9 00 00       	call   414d70 <_ZN11__sanitizer11CheckFailedEPKciS1_yy>
  406454:	66 2e 0f 1f 84 00 00 	nop    WORD PTR cs:[rax+rax*1+0x0]
  40645b:	00 00 00 
  40645e:	66 90                	xchg   ax,ax

0000000000406460 <_ZN11__sanitizer18LargeMmapAllocatorINS_20NoOpMapUnmapCallbackENS_32LargeMmapAllocatorPtrArrayStaticENS_21LocalAddressSpaceViewEE10DeallocateEPNS_14AllocatorStatsEPv>:
  406460:	41 57                	push   r15
  406462:	41 56                	push   r14
  406464:	53                   	push   rbx
  406465:	48 8b 07             	mov    rax,QWORD PTR [rdi]
  406468:	48 8d 48 ff          	lea    rcx,[rax-0x1]
  40646c:	48 85 d1             	test   rcx,rdx
  40646f:	0f 85 a3 00 00 00    	jne    406518 <_ZN11__sanitizer18LargeMmapAllocatorINS_20NoOpMapUnmapCallbackENS_32LargeMmapAllocatorPtrArrayStaticENS_21LocalAddressSpaceViewEE10DeallocateEPNS_14AllocatorStatsEPv+0xb8>
  406475:	49 89 d6             	mov    r14,rdx
  406478:	49 89 f7             	mov    r15,rsi
  40647b:	48 89 fb             	mov    rbx,rdi
  40647e:	49 29 c6             	sub    r14,rax
  406481:	b0 01                	mov    al,0x1
  406483:	86 87 40 02 04 00    	xchg   BYTE PTR [rdi+0x40240],al
  406489:	84 c0                	test   al,al
  40648b:	74 0c                	je     406499 <_ZN11__sanitizer18LargeMmapAllocatorINS_20NoOpMapUnmapCallbackENS_32LargeMmapAllocatorPtrArrayStaticENS_21LocalAddressSpaceViewEE10DeallocateEPNS_14AllocatorStatsEPv+0x39>
  40648d:	48 8d bb 40 02 04 00 	lea    rdi,[rbx+0x40240]
  406494:	e8 67 02 00 00       	call   406700 <_ZN11__sanitizer15StaticSpinMutex8LockSlowEv>
  406499:	49 8b 4e 18          	mov    rcx,QWORD PTR [r14+0x18]
  40649d:	48 8b 53 08          	mov    rdx,QWORD PTR [rbx+0x8]
  4064a1:	48 8b 04 ca          	mov    rax,QWORD PTR [rdx+rcx*8]
  4064a5:	4c 39 f0             	cmp    rax,r14
  4064a8:	0f 85 87 00 00 00    	jne    406535 <_ZN11__sanitizer18LargeMmapAllocatorINS_20NoOpMapUnmapCallbackENS_32LargeMmapAllocatorPtrArrayStaticENS_21LocalAddressSpaceViewEE10DeallocateEPNS_14AllocatorStatsEPv+0xd5>
  4064ae:	4c 8b 83 10 00 04 00 	mov    r8,QWORD PTR [rbx+0x40010]
  4064b5:	4c 39 c1             	cmp    rcx,r8
  4064b8:	0f 83 95 00 00 00    	jae    406553 <_ZN11__sanitizer18LargeMmapAllocatorINS_20NoOpMapUnmapCallbackENS_32LargeMmapAllocatorPtrArrayStaticENS_21LocalAddressSpaceViewEE10DeallocateEPNS_14AllocatorStatsEPv+0xf3>
  4064be:	49 8d 40 ff          	lea    rax,[r8-0x1]
  4064c2:	48 89 83 10 00 04 00 	mov    QWORD PTR [rbx+0x40010],rax
  4064c9:	4a 8b 44 c2 f8       	mov    rax,QWORD PTR [rdx+r8*8-0x8]
  4064ce:	48 89 04 ca          	mov    QWORD PTR [rdx+rcx*8],rax
  4064d2:	48 8b 43 08          	mov    rax,QWORD PTR [rbx+0x8]
  4064d6:	48 8b 04 c8          	mov    rax,QWORD PTR [rax+rcx*8]
  4064da:	48 89 48 18          	mov    QWORD PTR [rax+0x18],rcx
  4064de:	c6 83 18 00 04 00 00 	mov    BYTE PTR [rbx+0x40018],0x0
  4064e5:	48 83 83 28 00 04 00 	add    QWORD PTR [rbx+0x40028],0x1
  4064ec:	01 
  4064ed:	49 8b 46 08          	mov    rax,QWORD PTR [r14+0x8]
  4064f1:	48 29 83 30 00 04 00 	sub    QWORD PTR [rbx+0x40030],rax
  4064f8:	49 29 47 10          	sub    QWORD PTR [r15+0x10],rax
  4064fc:	49 29 47 18          	sub    QWORD PTR [r15+0x18],rax
  406500:	c6 83 40 02 04 00 00 	mov    BYTE PTR [rbx+0x40240],0x0
  406507:	49 8b 3e             	mov    rdi,QWORD PTR [r14]
  40650a:	49 8b 76 08          	mov    rsi,QWORD PTR [r14+0x8]
  40650e:	5b                   	pop    rbx
  40650f:	41 5e                	pop    r14
  406511:	41 5f                	pop    r15
  406513:	e9 38 99 00 00       	jmp    40fe50 <_ZN11__sanitizer10UnmapOrDieEPvm>
  406518:	48 8d 3d 33 26 02 00 	lea    rdi,[rip+0x22633]        # 428b52 <_IO_stdin_used+0xb52>
  40651f:	48 8d 15 af 27 02 00 	lea    rdx,[rip+0x227af]        # 428cd5 <_IO_stdin_used+0xcd5>
  406526:	be 2d 01 00 00       	mov    esi,0x12d
  40652b:	31 c9                	xor    ecx,ecx
  40652d:	45 31 c0             	xor    r8d,r8d
  406530:	e8 3b e8 00 00       	call   414d70 <_ZN11__sanitizer11CheckFailedEPKciS1_yy>
  406535:	48 8d 3d 16 26 02 00 	lea    rdi,[rip+0x22616]        # 428b52 <_IO_stdin_used+0xb52>
  40653c:	48 8d 15 3b 28 02 00 	lea    rdx,[rip+0x2283b]        # 428d7e <_IO_stdin_used+0xd7e>
  406543:	be 8b 00 00 00       	mov    esi,0x8b
  406548:	48 89 c1             	mov    rcx,rax
  40654b:	4d 89 f0             	mov    r8,r14
  40654e:	e8 1d e8 00 00       	call   414d70 <_ZN11__sanitizer11CheckFailedEPKciS1_yy>
  406553:	48 8d 3d f8 25 02 00 	lea    rdi,[rip+0x225f8]        # 428b52 <_IO_stdin_used+0xb52>
  40655a:	48 8d 15 37 28 02 00 	lea    rdx,[rip+0x22837]        # 428d98 <_IO_stdin_used+0xd98>
  406561:	be 8c 00 00 00       	mov    esi,0x8c
  406566:	e8 05 e8 00 00       	call   414d70 <_ZN11__sanitizer11CheckFailedEPKciS1_yy>
  40656b:	0f 1f 44 00 00       	nop    DWORD PTR [rax+rax*1+0x0]

0000000000406570 <_ZN11__sanitizer18LargeMmapAllocatorINS_20NoOpMapUnmapCallbackENS_32LargeMmapAllocatorPtrArrayStaticENS_21LocalAddressSpaceViewEE13GetBlockBeginEPKv>:
  406570:	41 57                	push   r15
  406572:	41 56                	push   r14
  406574:	41 54                	push   r12
  406576:	53                   	push   rbx
  406577:	50                   	push   rax
  406578:	49 89 f4             	mov    r12,rsi
  40657b:	49 89 ff             	mov    r15,rdi
  40657e:	4c 8d b7 40 02 04 00 	lea    r14,[rdi+0x40240]
  406585:	b0 01                	mov    al,0x1
  406587:	86 87 40 02 04 00    	xchg   BYTE PTR [rdi+0x40240],al
  40658d:	84 c0                	test   al,al
  40658f:	74 08                	je     406599 <_ZN11__sanitizer18LargeMmapAllocatorINS_20NoOpMapUnmapCallbackENS_32LargeMmapAllocatorPtrArrayStaticENS_21LocalAddressSpaceViewEE13GetBlockBeginEPKv+0x29>
  406591:	4c 89 f7             	mov    rdi,r14
  406594:	e8 67 01 00 00       	call   406700 <_ZN11__sanitizer15StaticSpinMutex8LockSlowEv>
  406599:	4d 8b 8f 10 00 04 00 	mov    r9,QWORD PTR [r15+0x40010]
  4065a0:	4d 85 c9             	test   r9,r9
  4065a3:	74 7c                	je     406621 <_ZN11__sanitizer18LargeMmapAllocatorINS_20NoOpMapUnmapCallbackENS_32LargeMmapAllocatorPtrArrayStaticENS_21LocalAddressSpaceViewEE13GetBlockBeginEPKv+0xb1>
  4065a5:	4d 8b 57 08          	mov    r10,QWORD PTR [r15+0x8]
  4065a9:	45 89 c8             	mov    r8d,r9d
  4065ac:	41 83 e0 01          	and    r8d,0x1
  4065b0:	49 83 f9 01          	cmp    r9,0x1
  4065b4:	75 7d                	jne    406633 <_ZN11__sanitizer18LargeMmapAllocatorINS_20NoOpMapUnmapCallbackENS_32LargeMmapAllocatorPtrArrayStaticENS_21LocalAddressSpaceViewEE13GetBlockBeginEPKv+0xc3>
  4065b6:	31 c9                	xor    ecx,ecx
  4065b8:	31 ff                	xor    edi,edi
  4065ba:	4d 85 c0             	test   r8,r8
  4065bd:	74 21                	je     4065e0 <_ZN11__sanitizer18LargeMmapAllocatorINS_20NoOpMapUnmapCallbackENS_32LargeMmapAllocatorPtrArrayStaticENS_21LocalAddressSpaceViewEE13GetBlockBeginEPKv+0x70>
  4065bf:	49 8b 04 fa          	mov    rax,QWORD PTR [r10+rdi*8]
  4065c3:	4c 89 e2             	mov    rdx,r12
  4065c6:	48 29 c2             	sub    rdx,rax
  4065c9:	4c 89 e6             	mov    rsi,r12
  4065cc:	48 29 ce             	sub    rsi,rcx
  4065cf:	48 39 f2             	cmp    rdx,rsi
  4065d2:	48 89 ca             	mov    rdx,rcx
  4065d5:	48 0f 42 d0          	cmovb  rdx,rax
  4065d9:	49 39 c4             	cmp    r12,rax
  4065dc:	48 0f 43 ca          	cmovae rcx,rdx
  4065e0:	48 85 c9             	test   rcx,rcx
  4065e3:	74 3c                	je     406621 <_ZN11__sanitizer18LargeMmapAllocatorINS_20NoOpMapUnmapCallbackENS_32LargeMmapAllocatorPtrArrayStaticENS_21LocalAddressSpaceViewEE13GetBlockBeginEPKv+0xb1>
  4065e5:	4c 8b 01             	mov    r8,QWORD PTR [rcx]
  4065e8:	4c 39 c1             	cmp    rcx,r8
  4065eb:	0f 82 a3 00 00 00    	jb     406694 <_ZN11__sanitizer18LargeMmapAllocatorINS_20NoOpMapUnmapCallbackENS_32LargeMmapAllocatorPtrArrayStaticENS_21LocalAddressSpaceViewEE13GetBlockBeginEPKv+0x124>
  4065f1:	4c 03 41 08          	add    r8,QWORD PTR [rcx+0x8]
  4065f5:	4c 39 c1             	cmp    rcx,r8
  4065f8:	0f 83 ae 00 00 00    	jae    4066ac <_ZN11__sanitizer18LargeMmapAllocatorINS_20NoOpMapUnmapCallbackENS_32LargeMmapAllocatorPtrArrayStaticENS_21LocalAddressSpaceViewEE13GetBlockBeginEPKv+0x13c>
  4065fe:	4c 39 e1             	cmp    rcx,r12
  406601:	0f 87 bd 00 00 00    	ja     4066c4 <_ZN11__sanitizer18LargeMmapAllocatorINS_20NoOpMapUnmapCallbackENS_32LargeMmapAllocatorPtrArrayStaticENS_21LocalAddressSpaceViewEE13GetBlockBeginEPKv+0x154>
  406607:	4d 39 e0             	cmp    r8,r12
  40660a:	76 15                	jbe    406621 <_ZN11__sanitizer18LargeMmapAllocatorINS_20NoOpMapUnmapCallbackENS_32LargeMmapAllocatorPtrArrayStaticENS_21LocalAddressSpaceViewEE13GetBlockBeginEPKv+0xb1>
  40660c:	49 8b 07             	mov    rax,QWORD PTR [r15]
  40660f:	48 8d 50 ff          	lea    rdx,[rax-0x1]
  406613:	48 85 ca             	test   rdx,rcx
  406616:	0f 85 c3 00 00 00    	jne    4066df <_ZN11__sanitizer18LargeMmapAllocatorINS_20NoOpMapUnmapCallbackENS_32LargeMmapAllocatorPtrArrayStaticENS_21LocalAddressSpaceViewEE13GetBlockBeginEPKv+0x16f>
  40661c:	48 01 c8             	add    rax,rcx
  40661f:	eb 02                	jmp    406623 <_ZN11__sanitizer18LargeMmapAllocatorINS_20NoOpMapUnmapCallbackENS_32LargeMmapAllocatorPtrArrayStaticENS_21LocalAddressSpaceViewEE13GetBlockBeginEPKv+0xb3>
  406621:	31 c0                	xor    eax,eax
  406623:	41 c6 06 00          	mov    BYTE PTR [r14],0x0
  406627:	48 83 c4 08          	add    rsp,0x8
  40662b:	5b                   	pop    rbx
  40662c:	41 5c                	pop    r12
  40662e:	41 5e                	pop    r14
  406630:	41 5f                	pop    r15
  406632:	c3                   	ret    
  406633:	4d 29 c1             	sub    r9,r8
  406636:	31 c9                	xor    ecx,ecx
  406638:	31 ff                	xor    edi,edi
  40663a:	eb 18                	jmp    406654 <_ZN11__sanitizer18LargeMmapAllocatorINS_20NoOpMapUnmapCallbackENS_32LargeMmapAllocatorPtrArrayStaticENS_21LocalAddressSpaceViewEE13GetBlockBeginEPKv+0xe4>
  40663c:	0f 1f 40 00          	nop    DWORD PTR [rax+0x0]
  406640:	4d 39 dc             	cmp    r12,r11
  406643:	48 0f 42 ce          	cmovb  rcx,rsi
  406647:	48 83 c7 02          	add    rdi,0x2
  40664b:	49 39 f9             	cmp    r9,rdi
  40664e:	0f 84 66 ff ff ff    	je     4065ba <_ZN11__sanitizer18LargeMmapAllocatorINS_20NoOpMapUnmapCallbackENS_32LargeMmapAllocatorPtrArrayStaticENS_21LocalAddressSpaceViewEE13GetBlockBeginEPKv+0x4a>
  406654:	49 8b 04 fa          	mov    rax,QWORD PTR [r10+rdi*8]
  406658:	4d 8b 5c fa 08       	mov    r11,QWORD PTR [r10+rdi*8+0x8]
  40665d:	4c 89 e3             	mov    rbx,r12
  406660:	48 29 c3             	sub    rbx,rax
  406663:	4c 89 e2             	mov    rdx,r12
  406666:	48 29 ca             	sub    rdx,rcx
  406669:	48 89 c6             	mov    rsi,rax
  40666c:	48 39 d3             	cmp    rbx,rdx
  40666f:	72 03                	jb     406674 <_ZN11__sanitizer18LargeMmapAllocatorINS_20NoOpMapUnmapCallbackENS_32LargeMmapAllocatorPtrArrayStaticENS_21LocalAddressSpaceViewEE13GetBlockBeginEPKv+0x104>
  406671:	48 89 ce             	mov    rsi,rcx
  406674:	49 39 c4             	cmp    r12,rax
  406677:	48 0f 42 f1          	cmovb  rsi,rcx
  40667b:	4c 89 e0             	mov    rax,r12
  40667e:	4c 29 d8             	sub    rax,r11
  406681:	4c 89 e2             	mov    rdx,r12
  406684:	48 29 f2             	sub    rdx,rsi
  406687:	4c 89 d9             	mov    rcx,r11
  40668a:	48 39 d0             	cmp    rax,rdx
  40668d:	72 b1                	jb     406640 <_ZN11__sanitizer18LargeMmapAllocatorINS_20NoOpMapUnmapCallbackENS_32LargeMmapAllocatorPtrArrayStaticENS_21LocalAddressSpaceViewEE13GetBlockBeginEPKv+0xd0>
  40668f:	48 89 f1             	mov    rcx,rsi
  406692:	eb ac                	jmp    406640 <_ZN11__sanitizer18LargeMmapAllocatorINS_20NoOpMapUnmapCallbackENS_32LargeMmapAllocatorPtrArrayStaticENS_21LocalAddressSpaceViewEE13GetBlockBeginEPKv+0xd0>
  406694:	48 8d 3d b7 24 02 00 	lea    rdi,[rip+0x224b7]        # 428b52 <_IO_stdin_used+0xb52>
  40669b:	48 8d 15 0e 27 02 00 	lea    rdx,[rip+0x2270e]        # 428db0 <_IO_stdin_used+0xdb0>
  4066a2:	be c7 00 00 00       	mov    esi,0xc7
  4066a7:	e8 c4 e6 00 00       	call   414d70 <_ZN11__sanitizer11CheckFailedEPKciS1_yy>
  4066ac:	48 8d 3d 9f 24 02 00 	lea    rdi,[rip+0x2249f]        # 428b52 <_IO_stdin_used+0xb52>
  4066b3:	48 8d 15 1a 27 02 00 	lea    rdx,[rip+0x2271a]        # 428dd4 <_IO_stdin_used+0xdd4>
  4066ba:	be c8 00 00 00       	mov    esi,0xc8
  4066bf:	e8 ac e6 00 00       	call   414d70 <_ZN11__sanitizer11CheckFailedEPKciS1_yy>
  4066c4:	48 8d 3d 87 24 02 00 	lea    rdi,[rip+0x22487]        # 428b52 <_IO_stdin_used+0xb52>
  4066cb:	48 8d 15 33 27 02 00 	lea    rdx,[rip+0x22733]        # 428e05 <_IO_stdin_used+0xe05>
  4066d2:	be c9 00 00 00       	mov    esi,0xc9
  4066d7:	4d 89 e0             	mov    r8,r12
  4066da:	e8 91 e6 00 00       	call   414d70 <_ZN11__sanitizer11CheckFailedEPKciS1_yy>
  4066df:	48 8d 3d 6c 24 02 00 	lea    rdi,[rip+0x2246c]        # 428b52 <_IO_stdin_used+0xb52>
  4066e6:	48 8d 15 33 27 02 00 	lea    rdx,[rip+0x22733]        # 428e20 <_IO_stdin_used+0xe20>
  4066ed:	be 35 01 00 00       	mov    esi,0x135
  4066f2:	31 c9                	xor    ecx,ecx
  4066f4:	45 31 c0             	xor    r8d,r8d
  4066f7:	e8 74 e6 00 00       	call   414d70 <_ZN11__sanitizer11CheckFailedEPKciS1_yy>
  4066fc:	0f 1f 40 00          	nop    DWORD PTR [rax+0x0]

0000000000406700 <_ZN11__sanitizer15StaticSpinMutex8LockSlowEv>:
  406700:	55                   	push   rbp
  406701:	53                   	push   rbx
  406702:	50                   	push   rax
  406703:	48 89 fb             	mov    rbx,rdi
  406706:	31 ed                	xor    ebp,ebp
  406708:	eb 09                	jmp    406713 <_ZN11__sanitizer15StaticSpinMutex8LockSlowEv+0x13>
  40670a:	66 0f 1f 44 00 00    	nop    WORD PTR [rax+rax*1+0x0]
  406710:	83 c5 01             	add    ebp,0x1
  406713:	83 fd 09             	cmp    ebp,0x9
  406716:	77 28                	ja     406740 <_ZN11__sanitizer15StaticSpinMutex8LockSlowEv+0x40>
  406718:	f3 90                	pause  
  40671a:	f3 90                	pause  
  40671c:	f3 90                	pause  
  40671e:	f3 90                	pause  
  406720:	f3 90                	pause  
  406722:	f3 90                	pause  
  406724:	f3 90                	pause  
  406726:	f3 90                	pause  
  406728:	f3 90                	pause  
  40672a:	f3 90                	pause  
  40672c:	80 3b 00             	cmp    BYTE PTR [rbx],0x0
  40672f:	75 df                	jne    406710 <_ZN11__sanitizer15StaticSpinMutex8LockSlowEv+0x10>
  406731:	eb 17                	jmp    40674a <_ZN11__sanitizer15StaticSpinMutex8LockSlowEv+0x4a>
  406733:	66 2e 0f 1f 84 00 00 	nop    WORD PTR cs:[rax+rax*1+0x0]
  40673a:	00 00 00 
  40673d:	0f 1f 00             	nop    DWORD PTR [rax]
  406740:	e8 fb 7e 00 00       	call   40e640 <_ZN11__sanitizer20internal_sched_yieldEv>
  406745:	80 3b 00             	cmp    BYTE PTR [rbx],0x0
  406748:	75 c6                	jne    406710 <_ZN11__sanitizer15StaticSpinMutex8LockSlowEv+0x10>
  40674a:	b0 01                	mov    al,0x1
  40674c:	86 03                	xchg   BYTE PTR [rbx],al
  40674e:	84 c0                	test   al,al
  406750:	75 be                	jne    406710 <_ZN11__sanitizer15StaticSpinMutex8LockSlowEv+0x10>
  406752:	48 83 c4 08          	add    rsp,0x8
  406756:	5b                   	pop    rbx
  406757:	5d                   	pop    rbp
  406758:	c3                   	ret    
  406759:	0f 1f 80 00 00 00 00 	nop    DWORD PTR [rax+0x0]

0000000000406760 <_ZN11__sanitizer23ReportMmapFailureAndDieEmPKcS1_ib>:
  406760:	50                   	push   rax
  406761:	80 3d 00 8e 0c 00 00 	cmp    BYTE PTR [rip+0xc8e00],0x0        # 4cf568 <_ZZN11__sanitizer23ReportMmapFailureAndDieEmPKcS1_ibE15recursion_count>
  406768:	75 52                	jne    4067bc <_ZN11__sanitizer23ReportMmapFailureAndDieEmPKcS1_ib+0x5c>
  40676a:	45 84 c0             	test   r8b,r8b
  40676d:	75 4d                	jne    4067bc <_ZN11__sanitizer23ReportMmapFailureAndDieEmPKcS1_ib+0x5c>
  40676f:	49 89 f1             	mov    r9,rsi
  406772:	48 89 f8             	mov    rax,rdi
  406775:	c6 05 ec 8d 0c 00 01 	mov    BYTE PTR [rip+0xc8dec],0x1        # 4cf568 <_ZZN11__sanitizer23ReportMmapFailureAndDieEmPKcS1_ibE15recursion_count>
  40677c:	48 8b 35 a5 5a 03 00 	mov    rsi,QWORD PTR [rip+0x35aa5]        # 43c228 <_ZN11__sanitizer17SanitizerToolNameE>
  406783:	89 0c 24             	mov    DWORD PTR [rsp],ecx
  406786:	48 8d 3d f9 26 02 00 	lea    rdi,[rip+0x226f9]        # 428e86 <_IO_stdin_used+0xe86>
  40678d:	48 89 c1             	mov    rcx,rax
  406790:	49 89 c0             	mov    r8,rax
  406793:	31 c0                	xor    eax,eax
  406795:	e8 c6 ad 00 00       	call   411560 <_ZN11__sanitizer6ReportEPKcz>
  40679a:	e8 01 a1 00 00       	call   4108a0 <_ZN11__sanitizer14DumpProcessMapEv>
  40679f:	48 8d 3d 21 27 02 00 	lea    rdi,[rip+0x22721]        # 428ec7 <_IO_stdin_used+0xec7>
  4067a6:	48 8d 15 80 27 02 00 	lea    rdx,[rip+0x22780]        # 428f2d <_IO_stdin_used+0xf2d>
  4067ad:	be 36 00 00 00       	mov    esi,0x36
  4067b2:	31 c9                	xor    ecx,ecx
  4067b4:	45 31 c0             	xor    r8d,r8d
  4067b7:	e8 b4 e5 00 00       	call   414d70 <_ZN11__sanitizer11CheckFailedEPKciS1_yy>
  4067bc:	48 8d 3d ac 26 02 00 	lea    rdi,[rip+0x226ac]        # 428e6f <_IO_stdin_used+0xe6f>
  4067c3:	e8 08 2b 00 00       	call   4092d0 <_ZN11__sanitizer8RawWriteEPKc>
  4067c8:	e8 c3 e4 00 00       	call   414c90 <_ZN11__sanitizer3DieEv>
  4067cd:	0f 1f 00             	nop    DWORD PTR [rax]

00000000004067d0 <_ZN11__sanitizer15StripPathPrefixEPKcS1_>:
  4067d0:	41 57                	push   r15
  4067d2:	41 56                	push   r14
  4067d4:	53                   	push   rbx
  4067d5:	48 85 ff             	test   rdi,rdi
  4067d8:	74 43                	je     40681d <_ZN11__sanitizer15StripPathPrefixEPKcS1_+0x4d>
  4067da:	49 89 f6             	mov    r14,rsi
  4067dd:	48 89 fb             	mov    rbx,rdi
  4067e0:	48 85 f6             	test   rsi,rsi
  4067e3:	74 3a                	je     40681f <_ZN11__sanitizer15StripPathPrefixEPKcS1_+0x4f>
  4067e5:	48 89 df             	mov    rdi,rbx
  4067e8:	4c 89 f6             	mov    rsi,r14
  4067eb:	e8 00 71 00 00       	call   40d8f0 <_ZN11__sanitizer15internal_strstrEPKcS1_>
  4067f0:	48 85 c0             	test   rax,rax
  4067f3:	74 11                	je     406806 <_ZN11__sanitizer15StripPathPrefixEPKcS1_+0x36>
  4067f5:	49 89 c7             	mov    r15,rax
  4067f8:	4c 89 f7             	mov    rdi,r14
  4067fb:	e8 d0 61 00 00       	call   40c9d0 <_ZN11__sanitizer15internal_strlenEPKc>
  406800:	49 01 c7             	add    r15,rax
  406803:	4c 89 fb             	mov    rbx,r15
  406806:	80 3b 2e             	cmp    BYTE PTR [rbx],0x2e
  406809:	75 14                	jne    40681f <_ZN11__sanitizer15StripPathPrefixEPKcS1_+0x4f>
  40680b:	48 8d 43 02          	lea    rax,[rbx+0x2]
  40680f:	80 7b 01 2f          	cmp    BYTE PTR [rbx+0x1],0x2f
  406813:	48 0f 45 c3          	cmovne rax,rbx
  406817:	5b                   	pop    rbx
  406818:	41 5e                	pop    r14
  40681a:	41 5f                	pop    r15
  40681c:	c3                   	ret    
  40681d:	31 db                	xor    ebx,ebx
  40681f:	48 89 d8             	mov    rax,rbx
  406822:	5b                   	pop    rbx
  406823:	41 5e                	pop    r14
  406825:	41 5f                	pop    r15
  406827:	c3                   	ret    
  406828:	0f 1f 84 00 00 00 00 	nop    DWORD PTR [rax+rax*1+0x0]
  40682f:	00 

0000000000406830 <_ZN11__sanitizer15StripModuleNameEPKc>:
  406830:	48 85 ff             	test   rdi,rdi
  406833:	74 1b                	je     406850 <_ZN11__sanitizer15StripModuleNameEPKc+0x20>
  406835:	53                   	push   rbx
  406836:	48 89 fb             	mov    rbx,rdi
  406839:	be 2f 00 00 00       	mov    esi,0x2f
  40683e:	e8 7d 62 00 00       	call   40cac0 <_ZN11__sanitizer16internal_strrchrEPKci>
  406843:	48 85 c0             	test   rax,rax
  406846:	48 8d 40 01          	lea    rax,[rax+0x1]
  40684a:	48 0f 44 c3          	cmove  rax,rbx
  40684e:	5b                   	pop    rbx
  40684f:	c3                   	ret    
  406850:	31 c0                	xor    eax,eax
  406852:	c3                   	ret    
  406853:	66 2e 0f 1f 84 00 00 	nop    WORD PTR cs:[rax+rax*1+0x0]
  40685a:	00 00 00 
  40685d:	0f 1f 00             	nop    DWORD PTR [rax]

0000000000406860 <_ZN11__sanitizer18ReportErrorSummaryEPKcS1_>:
  406860:	41 57                	push   r15
  406862:	41 56                	push   r14
  406864:	53                   	push   rbx
  406865:	48 83 ec 20          	sub    rsp,0x20
  406869:	48 8d 05 68 ad 0c 00 	lea    rax,[rip+0xcad68]        # 4d15d8 <_ZN11__sanitizer21common_flags_dont_useE>
  406870:	80 78 3c 00          	cmp    BYTE PTR [rax+0x3c],0x0
  406874:	0f 84 b5 00 00 00    	je     40692f <_ZN11__sanitizer18ReportErrorSummaryEPKcS1_+0xcf>
  40687a:	48 89 f3             	mov    rbx,rsi
  40687d:	49 89 fe             	mov    r14,rdi
  406880:	0f 57 c0             	xorps  xmm0,xmm0
  406883:	0f 11 44 24 08       	movups XMMWORD PTR [rsp+0x8],xmm0
  406888:	48 c7 04 24 00 00 00 	mov    QWORD PTR [rsp],0x0
  40688f:	00 
  406890:	48 89 e7             	mov    rdi,rsp
  406893:	41 bf 00 04 00 00    	mov    r15d,0x400
  406899:	be 00 04 00 00       	mov    esi,0x400
  40689e:	e8 cd 09 00 00       	call   407270 <_ZN11__sanitizer24InternalMmapVectorNoCtorIcE7ReallocEm>
  4068a3:	48 8b 44 24 10       	mov    rax,QWORD PTR [rsp+0x10]
  4068a8:	48 3d ff 03 00 00    	cmp    rax,0x3ff
  4068ae:	77 33                	ja     4068e3 <_ZN11__sanitizer18ReportErrorSummaryEPKcS1_+0x83>
  4068b0:	48 81 7c 24 08 ff 03 	cmp    QWORD PTR [rsp+0x8],0x3ff
  4068b7:	00 00 
  4068b9:	77 12                	ja     4068cd <_ZN11__sanitizer18ReportErrorSummaryEPKcS1_+0x6d>
  4068bb:	48 89 e7             	mov    rdi,rsp
  4068be:	be 00 04 00 00       	mov    esi,0x400
  4068c3:	e8 a8 09 00 00       	call   407270 <_ZN11__sanitizer24InternalMmapVectorNoCtorIcE7ReallocEm>
  4068c8:	48 8b 44 24 10       	mov    rax,QWORD PTR [rsp+0x10]
  4068cd:	48 8b 3c 24          	mov    rdi,QWORD PTR [rsp]
  4068d1:	48 01 c7             	add    rdi,rax
  4068d4:	ba 00 04 00 00       	mov    edx,0x400
  4068d9:	48 29 c2             	sub    rdx,rax
  4068dc:	31 f6                	xor    esi,esi
  4068de:	e8 2d 5d 00 00       	call   40c610 <_ZN11__sanitizer15internal_memsetEPvim>
  4068e3:	66 49 0f 6e c7       	movq   xmm0,r15
  4068e8:	f3 0f 7f 44 24 10    	movdqu XMMWORD PTR [rsp+0x10],xmm0
  4068ee:	48 8b 04 24          	mov    rax,QWORD PTR [rsp]
  4068f2:	c6 00 00             	mov    BYTE PTR [rax],0x0
  4068f5:	48 85 db             	test   rbx,rbx
  4068f8:	75 07                	jne    406901 <_ZN11__sanitizer18ReportErrorSummaryEPKcS1_+0xa1>
  4068fa:	48 8b 1d 27 59 03 00 	mov    rbx,QWORD PTR [rip+0x35927]        # 43c228 <_ZN11__sanitizer17SanitizerToolNameE>
  406901:	48 8d 35 46 26 02 00 	lea    rsi,[rip+0x22646]        # 428f4e <_IO_stdin_used+0xf4e>
  406908:	48 89 e7             	mov    rdi,rsp
  40690b:	48 89 da             	mov    rdx,rbx
  40690e:	4c 89 f1             	mov    rcx,r14
  406911:	31 c0                	xor    eax,eax
  406913:	e8 78 ad 00 00       	call   411690 <_ZN11__sanitizer20InternalScopedString6appendEPKcz>
  406918:	48 8b 3c 24          	mov    rdi,QWORD PTR [rsp]
  40691c:	e8 1f 00 00 00       	call   406940 <__sanitizer_report_error_summary>
  406921:	48 8b 3c 24          	mov    rdi,QWORD PTR [rsp]
  406925:	48 8b 74 24 08       	mov    rsi,QWORD PTR [rsp+0x8]
  40692a:	e8 21 95 00 00       	call   40fe50 <_ZN11__sanitizer10UnmapOrDieEPvm>
  40692f:	48 83 c4 20          	add    rsp,0x20
  406933:	5b                   	pop    rbx
  406934:	41 5e                	pop    r14
  406936:	41 5f                	pop    r15
  406938:	c3                   	ret    
  406939:	0f 1f 80 00 00 00 00 	nop    DWORD PTR [rax+0x0]

0000000000406940 <__sanitizer_report_error_summary>:
  406940:	48 89 fe             	mov    rsi,rdi
  406943:	48 8d 3d 1c 5c 02 00 	lea    rdi,[rip+0x25c1c]        # 42c566 <_ZN11__sanitizer14si_SEGV_ACCERRE+0x1d6>
  40694a:	31 c0                	xor    eax,eax
  40694c:	e9 4f ab 00 00       	jmp    4114a0 <_ZN11__sanitizer6PrintfEPKcz>
  406951:	66 2e 0f 1f 84 00 00 	nop    WORD PTR cs:[rax+rax*1+0x0]
  406958:	00 00 00 
  40695b:	0f 1f 44 00 00       	nop    DWORD PTR [rax+rax*1+0x0]

0000000000406960 <_ZN11__sanitizer35RemoveANSIEscapeSequencesFromStringEPc>:
  406960:	53                   	push   rbx
  406961:	48 85 ff             	test   rdi,rdi
  406964:	74 68                	je     4069ce <_ZN11__sanitizer35RemoveANSIEscapeSequencesFromStringEPc+0x6e>
  406966:	48 89 f8             	mov    rax,rdi
  406969:	8a 0f                	mov    cl,BYTE PTR [rdi]
  40696b:	84 c9                	test   cl,cl
  40696d:	74 59                	je     4069c8 <_ZN11__sanitizer35RemoveANSIEscapeSequencesFromStringEPc+0x68>
  40696f:	48 89 c3             	mov    rbx,rax
  406972:	66 2e 0f 1f 84 00 00 	nop    WORD PTR cs:[rax+rax*1+0x0]
  406979:	00 00 00 
  40697c:	0f 1f 40 00          	nop    DWORD PTR [rax+0x0]
  406980:	48 39 d8             	cmp    rax,rbx
  406983:	72 4b                	jb     4069d0 <_ZN11__sanitizer35RemoveANSIEscapeSequencesFromStringEPc+0x70>
  406985:	80 f9 1b             	cmp    cl,0x1b
  406988:	75 25                	jne    4069af <_ZN11__sanitizer35RemoveANSIEscapeSequencesFromStringEPc+0x4f>
  40698a:	80 78 01 5b          	cmp    BYTE PTR [rax+0x1],0x5b
  40698e:	75 1f                	jne    4069af <_ZN11__sanitizer35RemoveANSIEscapeSequencesFromStringEPc+0x4f>
  406990:	48 89 c7             	mov    rdi,rax
  406993:	be 6d 00 00 00       	mov    esi,0x6d
  406998:	e8 d3 60 00 00       	call   40ca70 <_ZN11__sanitizer18internal_strchrnulEPKci>
  40699d:	80 38 00             	cmp    BYTE PTR [rax],0x0
  4069a0:	74 29                	je     4069cb <_ZN11__sanitizer35RemoveANSIEscapeSequencesFromStringEPc+0x6b>
  4069a2:	48 83 c0 01          	add    rax,0x1
  4069a6:	0f b6 08             	movzx  ecx,BYTE PTR [rax]
  4069a9:	84 c9                	test   cl,cl
  4069ab:	75 d3                	jne    406980 <_ZN11__sanitizer35RemoveANSIEscapeSequencesFromStringEPc+0x20>
  4069ad:	eb 1c                	jmp    4069cb <_ZN11__sanitizer35RemoveANSIEscapeSequencesFromStringEPc+0x6b>
  4069af:	48 39 d8             	cmp    rax,rbx
  4069b2:	74 02                	je     4069b6 <_ZN11__sanitizer35RemoveANSIEscapeSequencesFromStringEPc+0x56>
  4069b4:	88 0b                	mov    BYTE PTR [rbx],cl
  4069b6:	48 83 c3 01          	add    rbx,0x1
  4069ba:	0f b6 48 01          	movzx  ecx,BYTE PTR [rax+0x1]
  4069be:	48 83 c0 01          	add    rax,0x1
  4069c2:	84 c9                	test   cl,cl
  4069c4:	75 ba                	jne    406980 <_ZN11__sanitizer35RemoveANSIEscapeSequencesFromStringEPc+0x20>
  4069c6:	eb 03                	jmp    4069cb <_ZN11__sanitizer35RemoveANSIEscapeSequencesFromStringEPc+0x6b>
  4069c8:	48 89 c3             	mov    rbx,rax
  4069cb:	c6 03 00             	mov    BYTE PTR [rbx],0x0
  4069ce:	5b                   	pop    rbx
  4069cf:	c3                   	ret    
  4069d0:	48 8d 3d f0 24 02 00 	lea    rdi,[rip+0x224f0]        # 428ec7 <_IO_stdin_used+0xec7>
  4069d7:	48 8d 15 80 25 02 00 	lea    rdx,[rip+0x22580]        # 428f5e <_IO_stdin_used+0xf5e>
  4069de:	be 69 00 00 00       	mov    esi,0x69
  4069e3:	48 89 c1             	mov    rcx,rax
  4069e6:	49 89 d8             	mov    r8,rbx
  4069e9:	e8 82 e3 00 00       	call   414d70 <_ZN11__sanitizer11CheckFailedEPKciS1_yy>
  4069ee:	66 90                	xchg   ax,ax

00000000004069f0 <_ZN11__sanitizer12LoadedModule3setEPKcm>:
  4069f0:	41 57                	push   r15
  4069f2:	41 56                	push   r14
  4069f4:	53                   	push   rbx
  4069f5:	49 89 d6             	mov    r14,rdx
  4069f8:	49 89 f7             	mov    r15,rsi
  4069fb:	48 89 fb             	mov    rbx,rdi
  4069fe:	48 8b 3f             	mov    rdi,QWORD PTR [rdi]
  406a01:	31 f6                	xor    esi,esi
  406a03:	e8 08 e1 ff ff       	call   404b10 <_ZN11__sanitizer12InternalFreeEPvPNS_30SizeClassAllocator32LocalCacheINS_20SizeClassAllocator32INS_4AP32EEEEE>
  406a08:	0f 57 c0             	xorps  xmm0,xmm0
  406a0b:	0f 11 43 08          	movups XMMWORD PTR [rbx+0x8],xmm0
  406a0f:	48 c7 03 00 00 00 00 	mov    QWORD PTR [rbx],0x0
  406a16:	c7 43 18 00 00 00 00 	mov    DWORD PTR [rbx+0x18],0x0
  406a1d:	48 8d 7b 1c          	lea    rdi,[rbx+0x1c]
  406a21:	ba 10 00 00 00       	mov    edx,0x10
  406a26:	31 f6                	xor    esi,esi
  406a28:	e8 e3 5b 00 00       	call   40c610 <_ZN11__sanitizer15internal_memsetEPvim>
  406a2d:	c6 43 2c 00          	mov    BYTE PTR [rbx+0x2c],0x0
  406a31:	eb 1c                	jmp    406a4f <_ZN11__sanitizer12LoadedModule3setEPKcm+0x5f>
  406a33:	66 2e 0f 1f 84 00 00 	nop    WORD PTR cs:[rax+rax*1+0x0]
  406a3a:	00 00 00 
  406a3d:	0f 1f 00             	nop    DWORD PTR [rax]
  406a40:	48 83 c0 ff          	add    rax,0xffffffffffffffff
  406a44:	48 89 43 30          	mov    QWORD PTR [rbx+0x30],rax
  406a48:	31 f6                	xor    esi,esi
  406a4a:	e8 c1 e0 ff ff       	call   404b10 <_ZN11__sanitizer12InternalFreeEPvPNS_30SizeClassAllocator32LocalCacheINS_20SizeClassAllocator32INS_4AP32EEEEE>
  406a4f:	48 8b 43 30          	mov    rax,QWORD PTR [rbx+0x30]
  406a53:	48 85 c0             	test   rax,rax
  406a56:	74 1a                	je     406a72 <_ZN11__sanitizer12LoadedModule3setEPKcm+0x82>
  406a58:	48 8b 7b 38          	mov    rdi,QWORD PTR [rbx+0x38]
  406a5c:	48 8b 0f             	mov    rcx,QWORD PTR [rdi]
  406a5f:	48 89 4b 38          	mov    QWORD PTR [rbx+0x38],rcx
  406a63:	48 85 c9             	test   rcx,rcx
  406a66:	75 d8                	jne    406a40 <_ZN11__sanitizer12LoadedModule3setEPKcm+0x50>
  406a68:	48 c7 43 40 00 00 00 	mov    QWORD PTR [rbx+0x40],0x0
  406a6f:	00 
  406a70:	eb ce                	jmp    406a40 <_ZN11__sanitizer12LoadedModule3setEPKcm+0x50>
  406a72:	4c 89 ff             	mov    rdi,r15
  406a75:	e8 86 5d 00 00       	call   40c800 <_ZN11__sanitizer15internal_strdupEPKc>
  406a7a:	48 89 03             	mov    QWORD PTR [rbx],rax
  406a7d:	4c 89 73 08          	mov    QWORD PTR [rbx+0x8],r14
  406a81:	5b                   	pop    rbx
  406a82:	41 5e                	pop    r14
  406a84:	41 5f                	pop    r15
  406a86:	c3                   	ret    
  406a87:	66 0f 1f 84 00 00 00 	nop    WORD PTR [rax+rax*1+0x0]
  406a8e:	00 00 

0000000000406a90 <_ZN11__sanitizer12LoadedModule5clearEv>:
  406a90:	53                   	push   rbx
  406a91:	48 89 fb             	mov    rbx,rdi
  406a94:	48 8b 3f             	mov    rdi,QWORD PTR [rdi]
  406a97:	31 f6                	xor    esi,esi
  406a99:	e8 72 e0 ff ff       	call   404b10 <_ZN11__sanitizer12InternalFreeEPvPNS_30SizeClassAllocator32LocalCacheINS_20SizeClassAllocator32INS_4AP32EEEEE>
  406a9e:	0f 57 c0             	xorps  xmm0,xmm0
  406aa1:	0f 11 43 08          	movups XMMWORD PTR [rbx+0x8],xmm0
  406aa5:	48 c7 03 00 00 00 00 	mov    QWORD PTR [rbx],0x0
  406aac:	c7 43 18 00 00 00 00 	mov    DWORD PTR [rbx+0x18],0x0
  406ab3:	48 8d 7b 1c          	lea    rdi,[rbx+0x1c]
  406ab7:	ba 10 00 00 00       	mov    edx,0x10
  406abc:	31 f6                	xor    esi,esi
  406abe:	e8 4d 5b 00 00       	call   40c610 <_ZN11__sanitizer15internal_memsetEPvim>
  406ac3:	c6 43 2c 00          	mov    BYTE PTR [rbx+0x2c],0x0
  406ac7:	eb 16                	jmp    406adf <_ZN11__sanitizer12LoadedModule5clearEv+0x4f>
  406ac9:	0f 1f 80 00 00 00 00 	nop    DWORD PTR [rax+0x0]
  406ad0:	48 83 c0 ff          	add    rax,0xffffffffffffffff
  406ad4:	48 89 43 30          	mov    QWORD PTR [rbx+0x30],rax
  406ad8:	31 f6                	xor    esi,esi
  406ada:	e8 31 e0 ff ff       	call   404b10 <_ZN11__sanitizer12InternalFreeEPvPNS_30SizeClassAllocator32LocalCacheINS_20SizeClassAllocator32INS_4AP32EEEEE>
  406adf:	48 8b 43 30          	mov    rax,QWORD PTR [rbx+0x30]
  406ae3:	48 85 c0             	test   rax,rax
  406ae6:	74 1a                	je     406b02 <_ZN11__sanitizer12LoadedModule5clearEv+0x72>
  406ae8:	48 8b 7b 38          	mov    rdi,QWORD PTR [rbx+0x38]
  406aec:	48 8b 0f             	mov    rcx,QWORD PTR [rdi]
  406aef:	48 89 4b 38          	mov    QWORD PTR [rbx+0x38],rcx
  406af3:	48 85 c9             	test   rcx,rcx
  406af6:	75 d8                	jne    406ad0 <_ZN11__sanitizer12LoadedModule5clearEv+0x40>
  406af8:	48 c7 43 40 00 00 00 	mov    QWORD PTR [rbx+0x40],0x0
  406aff:	00 
  406b00:	eb ce                	jmp    406ad0 <_ZN11__sanitizer12LoadedModule5clearEv+0x40>
  406b02:	5b                   	pop    rbx
  406b03:	c3                   	ret    
  406b04:	66 2e 0f 1f 84 00 00 	nop    WORD PTR cs:[rax+rax*1+0x0]
  406b0b:	00 00 00 
  406b0e:	66 90                	xchg   ax,ax

0000000000406b10 <_ZN11__sanitizer12LoadedModule3setEPKcmNS_10ModuleArchEPhb>:
  406b10:	55                   	push   rbp
  406b11:	41 57                	push   r15
  406b13:	41 56                	push   r14
  406b15:	41 55                	push   r13
  406b17:	41 54                	push   r12
  406b19:	53                   	push   rbx
  406b1a:	50                   	push   rax
  406b1b:	44 89 4c 24 04       	mov    DWORD PTR [rsp+0x4],r9d
  406b20:	4d 89 c7             	mov    r15,r8
  406b23:	41 89 cc             	mov    r12d,ecx
  406b26:	49 89 d5             	mov    r13,rdx
  406b29:	48 89 f3             	mov    rbx,rsi
  406b2c:	48 89 fd             	mov    rbp,rdi
  406b2f:	48 8b 3f             	mov    rdi,QWORD PTR [rdi]
  406b32:	31 f6                	xor    esi,esi
  406b34:	e8 d7 df ff ff       	call   404b10 <_ZN11__sanitizer12InternalFreeEPvPNS_30SizeClassAllocator32LocalCacheINS_20SizeClassAllocator32INS_4AP32EEEEE>
  406b39:	0f 57 c0             	xorps  xmm0,xmm0
  406b3c:	0f 11 45 08          	movups XMMWORD PTR [rbp+0x8],xmm0
  406b40:	48 c7 45 00 00 00 00 	mov    QWORD PTR [rbp+0x0],0x0
  406b47:	00 
  406b48:	c7 45 18 00 00 00 00 	mov    DWORD PTR [rbp+0x18],0x0
  406b4f:	4c 8d 75 1c          	lea    r14,[rbp+0x1c]
  406b53:	ba 10 00 00 00       	mov    edx,0x10
  406b58:	4c 89 f7             	mov    rdi,r14
  406b5b:	31 f6                	xor    esi,esi
  406b5d:	e8 ae 5a 00 00       	call   40c610 <_ZN11__sanitizer15internal_memsetEPvim>
  406b62:	c6 45 2c 00          	mov    BYTE PTR [rbp+0x2c],0x0
  406b66:	eb 17                	jmp    406b7f <_ZN11__sanitizer12LoadedModule3setEPKcmNS_10ModuleArchEPhb+0x6f>
  406b68:	0f 1f 84 00 00 00 00 	nop    DWORD PTR [rax+rax*1+0x0]
  406b6f:	00 
  406b70:	48 83 c0 ff          	add    rax,0xffffffffffffffff
  406b74:	48 89 45 30          	mov    QWORD PTR [rbp+0x30],rax
  406b78:	31 f6                	xor    esi,esi
  406b7a:	e8 91 df ff ff       	call   404b10 <_ZN11__sanitizer12InternalFreeEPvPNS_30SizeClassAllocator32LocalCacheINS_20SizeClassAllocator32INS_4AP32EEEEE>
  406b7f:	48 8b 45 30          	mov    rax,QWORD PTR [rbp+0x30]
  406b83:	48 85 c0             	test   rax,rax
  406b86:	74 1a                	je     406ba2 <_ZN11__sanitizer12LoadedModule3setEPKcmNS_10ModuleArchEPhb+0x92>
  406b88:	48 8b 7d 38          	mov    rdi,QWORD PTR [rbp+0x38]
  406b8c:	48 8b 0f             	mov    rcx,QWORD PTR [rdi]
  406b8f:	48 89 4d 38          	mov    QWORD PTR [rbp+0x38],rcx
  406b93:	48 85 c9             	test   rcx,rcx
  406b96:	75 d8                	jne    406b70 <_ZN11__sanitizer12LoadedModule3setEPKcmNS_10ModuleArchEPhb+0x60>
  406b98:	48 c7 45 40 00 00 00 	mov    QWORD PTR [rbp+0x40],0x0
  406b9f:	00 
  406ba0:	eb ce                	jmp    406b70 <_ZN11__sanitizer12LoadedModule3setEPKcmNS_10ModuleArchEPhb+0x60>
  406ba2:	48 89 df             	mov    rdi,rbx
  406ba5:	e8 56 5c 00 00       	call   40c800 <_ZN11__sanitizer15internal_strdupEPKc>
  406baa:	48 89 45 00          	mov    QWORD PTR [rbp+0x0],rax
  406bae:	4c 89 6d 08          	mov    QWORD PTR [rbp+0x8],r13
  406bb2:	44 89 65 18          	mov    DWORD PTR [rbp+0x18],r12d
  406bb6:	ba 10 00 00 00       	mov    edx,0x10
  406bbb:	4c 89 f7             	mov    rdi,r14
  406bbe:	4c 89 fe             	mov    rsi,r15
  406bc1:	e8 4a 56 00 00       	call   40c210 <_ZN11__sanitizer15internal_memcpyEPvPKvm>
  406bc6:	8b 44 24 04          	mov    eax,DWORD PTR [rsp+0x4]
  406bca:	88 45 2c             	mov    BYTE PTR [rbp+0x2c],al
  406bcd:	48 83 c4 08          	add    rsp,0x8
  406bd1:	5b                   	pop    rbx
  406bd2:	41 5c                	pop    r12
  406bd4:	41 5d                	pop    r13
  406bd6:	41 5e                	pop    r14
  406bd8:	41 5f                	pop    r15
  406bda:	5d                   	pop    rbp
  406bdb:	c3                   	ret    
  406bdc:	0f 1f 40 00          	nop    DWORD PTR [rax+0x0]

0000000000406be0 <_ZN11__sanitizer12LoadedModule15addAddressRangeEmmbbPKc>:
  406be0:	55                   	push   rbp
  406be1:	41 57                	push   r15
  406be3:	41 56                	push   r14
  406be5:	41 55                	push   r13
  406be7:	41 54                	push   r12
  406be9:	53                   	push   rbx
  406bea:	50                   	push   rax
  406beb:	4d 89 cc             	mov    r12,r9
  406bee:	44 89 44 24 04       	mov    DWORD PTR [rsp+0x4],r8d
  406bf3:	41 89 cd             	mov    r13d,ecx
  406bf6:	49 89 d7             	mov    r15,rdx
  406bf9:	49 89 f6             	mov    r14,rsi
  406bfc:	48 89 fb             	mov    rbx,rdi
  406bff:	bf 30 00 00 00       	mov    edi,0x30
  406c04:	31 f6                	xor    esi,esi
  406c06:	31 d2                	xor    edx,edx
  406c08:	e8 73 dc ff ff       	call   404880 <_ZN11__sanitizer13InternalAllocEmPNS_30SizeClassAllocator32LocalCacheINS_20SizeClassAllocator32INS_4AP32EEEEEm>
  406c0d:	48 89 c5             	mov    rbp,rax
  406c10:	48 c7 00 00 00 00 00 	mov    QWORD PTR [rax],0x0
  406c17:	4c 89 70 08          	mov    QWORD PTR [rax+0x8],r14
  406c1b:	4c 89 78 10          	mov    QWORD PTR [rax+0x10],r15
  406c1f:	44 88 68 18          	mov    BYTE PTR [rax+0x18],r13b
  406c23:	8b 44 24 04          	mov    eax,DWORD PTR [rsp+0x4]
  406c27:	88 45 19             	mov    BYTE PTR [rbp+0x19],al
  406c2a:	48 8d 7d 1a          	lea    rdi,[rbp+0x1a]
  406c2e:	4d 85 e4             	test   r12,r12
  406c31:	48 8d 35 ad 7b 02 00 	lea    rsi,[rip+0x27bad]        # 42e7e5 <_ZN8__sancov12_GLOBAL__N_15MagicE+0x6ed>
  406c38:	49 0f 45 f4          	cmovne rsi,r12
  406c3c:	ba 10 00 00 00       	mov    edx,0x10
  406c41:	e8 7a 6b 00 00       	call   40d7c0 <_ZN11__sanitizer16internal_strncpyEPcPKcm>
  406c46:	48 8b 43 30          	mov    rax,QWORD PTR [rbx+0x30]
  406c4a:	48 c7 45 00 00 00 00 	mov    QWORD PTR [rbp+0x0],0x0
  406c51:	00 
  406c52:	48 85 c0             	test   rax,rax
  406c55:	74 1a                	je     406c71 <_ZN11__sanitizer12LoadedModule15addAddressRangeEmmbbPKc+0x91>
  406c57:	48 8b 4b 40          	mov    rcx,QWORD PTR [rbx+0x40]
  406c5b:	48 89 29             	mov    QWORD PTR [rcx],rbp
  406c5e:	48 89 6b 40          	mov    QWORD PTR [rbx+0x40],rbp
  406c62:	48 83 c0 01          	add    rax,0x1
  406c66:	48 89 43 30          	mov    QWORD PTR [rbx+0x30],rax
  406c6a:	45 84 ed             	test   r13b,r13b
  406c6d:	75 18                	jne    406c87 <_ZN11__sanitizer12LoadedModule15addAddressRangeEmmbbPKc+0xa7>
  406c6f:	eb 20                	jmp    406c91 <_ZN11__sanitizer12LoadedModule15addAddressRangeEmmbbPKc+0xb1>
  406c71:	48 89 6b 40          	mov    QWORD PTR [rbx+0x40],rbp
  406c75:	48 89 6b 38          	mov    QWORD PTR [rbx+0x38],rbp
  406c79:	b8 01 00 00 00       	mov    eax,0x1
  406c7e:	48 89 43 30          	mov    QWORD PTR [rbx+0x30],rax
  406c82:	45 84 ed             	test   r13b,r13b
  406c85:	74 0a                	je     406c91 <_ZN11__sanitizer12LoadedModule15addAddressRangeEmmbbPKc+0xb1>
  406c87:	4c 39 7b 10          	cmp    QWORD PTR [rbx+0x10],r15
  406c8b:	73 04                	jae    406c91 <_ZN11__sanitizer12LoadedModule15addAddressRangeEmmbbPKc+0xb1>
  406c8d:	4c 89 7b 10          	mov    QWORD PTR [rbx+0x10],r15
  406c91:	48 83 c4 08          	add    rsp,0x8
  406c95:	5b                   	pop    rbx
  406c96:	41 5c                	pop    r12
  406c98:	41 5d                	pop    r13
  406c9a:	41 5e                	pop    r14
  406c9c:	41 5f                	pop    r15
  406c9e:	5d                   	pop    rbp
  406c9f:	c3                   	ret    

0000000000406ca0 <_ZNK11__sanitizer12LoadedModule15containsAddressEm>:
  406ca0:	48 8b 47 38          	mov    rax,QWORD PTR [rdi+0x38]
  406ca4:	eb 0d                	jmp    406cb3 <_ZNK11__sanitizer12LoadedModule15containsAddressEm+0x13>
  406ca6:	66 2e 0f 1f 84 00 00 	nop    WORD PTR cs:[rax+rax*1+0x0]
  406cad:	00 00 00 
  406cb0:	48 8b 00             	mov    rax,QWORD PTR [rax]
  406cb3:	48 85 c0             	test   rax,rax
  406cb6:	74 0f                	je     406cc7 <_ZNK11__sanitizer12LoadedModule15containsAddressEm+0x27>
  406cb8:	48 39 70 08          	cmp    QWORD PTR [rax+0x8],rsi
  406cbc:	77 f2                	ja     406cb0 <_ZNK11__sanitizer12LoadedModule15containsAddressEm+0x10>
  406cbe:	48 39 70 10          	cmp    QWORD PTR [rax+0x10],rsi
  406cc2:	76 ec                	jbe    406cb0 <_ZNK11__sanitizer12LoadedModule15containsAddressEm+0x10>
  406cc4:	b0 01                	mov    al,0x1
  406cc6:	c3                   	ret    
  406cc7:	31 c0                	xor    eax,eax
  406cc9:	c3                   	ret    
  406cca:	66 0f 1f 44 00 00    	nop    WORD PTR [rax+rax*1+0x0]

0000000000406cd0 <_ZN11__sanitizer17IncreaseTotalMmapEm>:
  406cd0:	50                   	push   rax
  406cd1:	48 8d 05 00 a9 0c 00 	lea    rax,[rip+0xca900]        # 4d15d8 <_ZN11__sanitizer21common_flags_dont_useE>
  406cd8:	48 83 b8 80 00 00 00 	cmp    QWORD PTR [rax+0x80],0x0
  406cdf:	00 
  406ce0:	74 1c                	je     406cfe <_ZN11__sanitizer17IncreaseTotalMmapEm+0x2e>
  406ce2:	48 89 f9             	mov    rcx,rdi
  406ce5:	f0 48 0f c1 0d 82 88 	lock xadd QWORD PTR [rip+0xc8882],rcx        # 4cf570 <_ZN11__sanitizerL14g_total_mmapedE>
  406cec:	0c 00 
  406cee:	48 01 f9             	add    rcx,rdi
  406cf1:	48 c1 e9 14          	shr    rcx,0x14
  406cf5:	48 3b 88 80 00 00 00 	cmp    rcx,QWORD PTR [rax+0x80]
  406cfc:	73 02                	jae    406d00 <_ZN11__sanitizer17IncreaseTotalMmapEm+0x30>
  406cfe:	58                   	pop    rax
  406cff:	c3                   	ret    
  406d00:	48 8d 3d 66 22 02 00 	lea    rdi,[rip+0x22266]        # 428f6d <_IO_stdin_used+0xf6d>
  406d07:	e8 c4 25 00 00       	call   4092d0 <_ZN11__sanitizer8RawWriteEPKc>
  406d0c:	e8 7f df 00 00       	call   414c90 <_ZN11__sanitizer3DieEv>
  406d11:	66 2e 0f 1f 84 00 00 	nop    WORD PTR cs:[rax+rax*1+0x0]
  406d18:	00 00 00 
  406d1b:	0f 1f 44 00 00       	nop    DWORD PTR [rax+rax*1+0x0]

0000000000406d20 <_ZN11__sanitizer17DecreaseTotalMmapEm>:
  406d20:	48 8d 05 b1 a8 0c 00 	lea    rax,[rip+0xca8b1]        # 4d15d8 <_ZN11__sanitizer21common_flags_dont_useE>
  406d27:	48 83 b8 80 00 00 00 	cmp    QWORD PTR [rax+0x80],0x0
  406d2e:	00 
  406d2f:	74 0b                	je     406d3c <_ZN11__sanitizer17DecreaseTotalMmapEm+0x1c>
  406d31:	48 f7 df             	neg    rdi
  406d34:	f0 48 01 3d 34 88 0c 	lock add QWORD PTR [rip+0xc8834],rdi        # 4cf570 <_ZN11__sanitizerL14g_total_mmapedE>
  406d3b:	00 
  406d3c:	c3                   	ret    
  406d3d:	0f 1f 00             	nop    DWORD PTR [rax]

0000000000406d40 <_ZN11__sanitizer13TemplateMatchEPKcS1_>:
  406d40:	55                   	push   rbp
  406d41:	41 57                	push   r15
  406d43:	41 56                	push   r14
  406d45:	41 55                	push   r13
  406d47:	41 54                	push   r12
  406d49:	53                   	push   rbx
  406d4a:	50                   	push   rax
  406d4b:	48 85 f6             	test   rsi,rsi
  406d4e:	0f 84 24 01 00 00    	je     406e78 <_ZN11__sanitizer13TemplateMatchEPKcS1_+0x138>
  406d54:	80 3e 00             	cmp    BYTE PTR [rsi],0x0
  406d57:	0f 84 1b 01 00 00    	je     406e78 <_ZN11__sanitizer13TemplateMatchEPKcS1_+0x138>
  406d5d:	48 85 ff             	test   rdi,rdi
  406d60:	74 11                	je     406d73 <_ZN11__sanitizer13TemplateMatchEPKcS1_+0x33>
  406d62:	80 3f 5e             	cmp    BYTE PTR [rdi],0x5e
  406d65:	4c 8d 6f 01          	lea    r13,[rdi+0x1]
  406d69:	41 0f 94 c7          	sete   r15b
  406d6d:	4c 0f 45 ef          	cmovne r13,rdi
  406d71:	eb 06                	jmp    406d79 <_ZN11__sanitizer13TemplateMatchEPKcS1_+0x39>
  406d73:	45 31 ff             	xor    r15d,r15d
  406d76:	45 31 ed             	xor    r13d,r13d
  406d79:	4d 85 ed             	test   r13,r13
  406d7c:	0f 84 fb 00 00 00    	je     406e7d <_ZN11__sanitizer13TemplateMatchEPKcS1_+0x13d>
  406d82:	49 89 f6             	mov    r14,rsi
  406d85:	31 c0                	xor    eax,eax
  406d87:	4c 89 eb             	mov    rbx,r13
  406d8a:	8a 0b                	mov    cl,BYTE PTR [rbx]
  406d8c:	80 f9 2a             	cmp    cl,0x2a
  406d8f:	75 20                	jne    406db1 <_ZN11__sanitizer13TemplateMatchEPKcS1_+0x71>
  406d91:	66 2e 0f 1f 84 00 00 	nop    WORD PTR cs:[rax+rax*1+0x0]
  406d98:	00 00 00 
  406d9b:	0f 1f 44 00 00       	nop    DWORD PTR [rax+rax*1+0x0]
  406da0:	48 83 c3 01          	add    rbx,0x1
  406da4:	b0 01                	mov    al,0x1
  406da6:	45 31 ff             	xor    r15d,r15d
  406da9:	0f b6 0b             	movzx  ecx,BYTE PTR [rbx]
  406dac:	80 f9 2a             	cmp    cl,0x2a
  406daf:	74 ef                	je     406da0 <_ZN11__sanitizer13TemplateMatchEPKcS1_+0x60>
  406db1:	84 c9                	test   cl,cl
  406db3:	0f 84 c4 00 00 00    	je     406e7d <_ZN11__sanitizer13TemplateMatchEPKcS1_+0x13d>
  406db9:	41 8a 16             	mov    dl,BYTE PTR [r14]
  406dbc:	80 f9 24             	cmp    cl,0x24
  406dbf:	0f 84 cd 00 00 00    	je     406e92 <_ZN11__sanitizer13TemplateMatchEPKcS1_+0x152>
  406dc5:	84 d2                	test   dl,dl
  406dc7:	0f 84 ab 00 00 00    	je     406e78 <_ZN11__sanitizer13TemplateMatchEPKcS1_+0x138>
  406dcd:	48 89 df             	mov    rdi,rbx
  406dd0:	be 2a 00 00 00       	mov    esi,0x2a
  406dd5:	e8 f6 59 00 00       	call   40c7d0 <_ZN11__sanitizer15internal_strchrEPKci>
  406dda:	48 89 c5             	mov    rbp,rax
  406ddd:	48 89 df             	mov    rdi,rbx
  406de0:	be 24 00 00 00       	mov    esi,0x24
  406de5:	e8 e6 59 00 00       	call   40c7d0 <_ZN11__sanitizer15internal_strchrEPKci>
  406dea:	49 89 c4             	mov    r12,rax
  406ded:	48 85 ed             	test   rbp,rbp
  406df0:	74 13                	je     406e05 <_ZN11__sanitizer13TemplateMatchEPKcS1_+0xc5>
  406df2:	49 39 ec             	cmp    r12,rbp
  406df5:	49 89 ed             	mov    r13,rbp
  406df8:	4d 0f 42 ec          	cmovb  r13,r12
  406dfc:	4d 85 e4             	test   r12,r12
  406dff:	4c 0f 44 ed          	cmove  r13,rbp
  406e03:	eb 08                	jmp    406e0d <_ZN11__sanitizer13TemplateMatchEPKcS1_+0xcd>
  406e05:	4d 89 e5             	mov    r13,r12
  406e08:	4d 85 e4             	test   r12,r12
  406e0b:	74 60                	je     406e6d <_ZN11__sanitizer13TemplateMatchEPKcS1_+0x12d>
  406e0d:	41 c6 45 00 00       	mov    BYTE PTR [r13+0x0],0x0
  406e12:	b0 01                	mov    al,0x1
  406e14:	48 89 04 24          	mov    QWORD PTR [rsp],rax
  406e18:	4c 89 f7             	mov    rdi,r14
  406e1b:	48 89 de             	mov    rsi,rbx
  406e1e:	e8 cd 6a 00 00       	call   40d8f0 <_ZN11__sanitizer15internal_strstrEPKcS1_>
  406e23:	48 89 c5             	mov    rbp,rax
  406e26:	48 89 df             	mov    rdi,rbx
  406e29:	e8 a2 5b 00 00       	call   40c9d0 <_ZN11__sanitizer15internal_strlenEPKc>
  406e2e:	48 89 c6             	mov    rsi,rax
  406e31:	80 3c 24 00          	cmp    BYTE PTR [rsp],0x0
  406e35:	74 14                	je     406e4b <_ZN11__sanitizer13TemplateMatchEPKcS1_+0x10b>
  406e37:	4d 39 e5             	cmp    r13,r12
  406e3a:	b8 2a 00 00 00       	mov    eax,0x2a
  406e3f:	b9 24 00 00 00       	mov    ecx,0x24
  406e44:	0f 44 c1             	cmove  eax,ecx
  406e47:	41 88 45 00          	mov    BYTE PTR [r13+0x0],al
  406e4b:	48 85 ed             	test   rbp,rbp
  406e4e:	74 28                	je     406e78 <_ZN11__sanitizer13TemplateMatchEPKcS1_+0x138>
  406e50:	48 01 ee             	add    rsi,rbp
  406e53:	45 84 ff             	test   r15b,r15b
  406e56:	41 bf 00 00 00 00    	mov    r15d,0x0
  406e5c:	0f 84 17 ff ff ff    	je     406d79 <_ZN11__sanitizer13TemplateMatchEPKcS1_+0x39>
  406e62:	4c 39 f5             	cmp    rbp,r14
  406e65:	0f 84 0e ff ff ff    	je     406d79 <_ZN11__sanitizer13TemplateMatchEPKcS1_+0x39>
  406e6b:	eb 13                	jmp    406e80 <_ZN11__sanitizer13TemplateMatchEPKcS1_+0x140>
  406e6d:	31 c0                	xor    eax,eax
  406e6f:	48 89 04 24          	mov    QWORD PTR [rsp],rax
  406e73:	45 31 ed             	xor    r13d,r13d
  406e76:	eb a0                	jmp    406e18 <_ZN11__sanitizer13TemplateMatchEPKcS1_+0xd8>
  406e78:	45 31 ff             	xor    r15d,r15d
  406e7b:	eb 03                	jmp    406e80 <_ZN11__sanitizer13TemplateMatchEPKcS1_+0x140>
  406e7d:	41 b7 01             	mov    r15b,0x1
  406e80:	44 89 f8             	mov    eax,r15d
  406e83:	48 83 c4 08          	add    rsp,0x8
  406e87:	5b                   	pop    rbx
  406e88:	41 5c                	pop    r12
  406e8a:	41 5d                	pop    r13
  406e8c:	41 5e                	pop    r14
  406e8e:	41 5f                	pop    r15
  406e90:	5d                   	pop    rbp
  406e91:	c3                   	ret    
  406e92:	84 d2                	test   dl,dl
  406e94:	0f 94 c1             	sete   cl
  406e97:	84 c0                	test   al,al
  406e99:	41 0f 95 c7          	setne  r15b
  406e9d:	41 08 cf             	or     r15b,cl
  406ea0:	eb de                	jmp    406e80 <_ZN11__sanitizer13TemplateMatchEPKcS1_+0x140>
  406ea2:	66 2e 0f 1f 84 00 00 	nop    WORD PTR cs:[rax+rax*1+0x0]
  406ea9:	00 00 00 
  406eac:	0f 1f 40 00          	nop    DWORD PTR [rax+0x0]

0000000000406eb0 <_ZN11__sanitizer14GetProcessNameEv>:
  406eb0:	48 8d 05 c9 86 0c 00 	lea    rax,[rip+0xc86c9]        # 4cf580 <_ZN11__sanitizerL22process_name_cache_strE>
  406eb7:	c3                   	ret    
  406eb8:	0f 1f 84 00 00 00 00 	nop    DWORD PTR [rax+rax*1+0x0]
  406ebf:	00 

0000000000406ec0 <_ZN11__sanitizer17UpdateProcessNameEv>:
  406ec0:	41 57                	push   r15
  406ec2:	41 56                	push   r14
  406ec4:	53                   	push   rbx
  406ec5:	4c 8d 35 b4 86 0c 00 	lea    r14,[rip+0xc86b4]        # 4cf580 <_ZN11__sanitizerL22process_name_cache_strE>
  406ecc:	be 00 10 00 00       	mov    esi,0x1000
  406ed1:	4c 89 f7             	mov    rdi,r14
  406ed4:	e8 37 85 00 00       	call   40f410 <_ZN11__sanitizer19ReadLongProcessNameEPcm>
  406ed9:	4c 89 f7             	mov    rdi,r14
  406edc:	be 2f 00 00 00       	mov    esi,0x2f
  406ee1:	e8 da 5b 00 00       	call   40cac0 <_ZN11__sanitizer16internal_strrchrEPKci>
  406ee6:	48 85 c0             	test   rax,rax
  406ee9:	48 8d 58 01          	lea    rbx,[rax+0x1]
  406eed:	49 0f 44 de          	cmove  rbx,r14
  406ef1:	48 89 df             	mov    rdi,rbx
  406ef4:	e8 d7 5a 00 00       	call   40c9d0 <_ZN11__sanitizer15internal_strlenEPKc>
  406ef9:	4c 39 f3             	cmp    rbx,r14
  406efc:	74 16                	je     406f14 <_ZN11__sanitizer17UpdateProcessNameEv+0x54>
  406efe:	49 89 c7             	mov    r15,rax
  406f01:	4c 89 f7             	mov    rdi,r14
  406f04:	48 89 de             	mov    rsi,rbx
  406f07:	48 89 c2             	mov    rdx,rax
  406f0a:	e8 71 54 00 00       	call   40c380 <_ZN11__sanitizer16internal_memmoveEPvPKvm>
  406f0f:	43 c6 04 37 00       	mov    BYTE PTR [r15+r14*1],0x0
  406f14:	5b                   	pop    rbx
  406f15:	41 5e                	pop    r14
  406f17:	41 5f                	pop    r15
  406f19:	c3                   	ret    
  406f1a:	66 0f 1f 44 00 00    	nop    WORD PTR [rax+rax*1+0x0]

0000000000406f20 <_ZN11__sanitizer15CacheBinaryNameEv>:
  406f20:	41 57                	push   r15
  406f22:	41 56                	push   r14
  406f24:	53                   	push   rbx
  406f25:	80 3d 54 96 0c 00 00 	cmp    BYTE PTR [rip+0xc9654],0x0        # 4d0580 <_ZN11__sanitizerL21binary_name_cache_strE>
  406f2c:	74 06                	je     406f34 <_ZN11__sanitizer15CacheBinaryNameEv+0x14>
  406f2e:	5b                   	pop    rbx
  406f2f:	41 5e                	pop    r14
  406f31:	41 5f                	pop    r15
  406f33:	c3                   	ret    
  406f34:	48 8d 3d 45 96 0c 00 	lea    rdi,[rip+0xc9645]        # 4d0580 <_ZN11__sanitizerL21binary_name_cache_strE>
  406f3b:	be 00 10 00 00       	mov    esi,0x1000
  406f40:	e8 4b 84 00 00       	call   40f390 <_ZN11__sanitizer14ReadBinaryNameEPcm>
  406f45:	4c 8d 35 34 86 0c 00 	lea    r14,[rip+0xc8634]        # 4cf580 <_ZN11__sanitizerL22process_name_cache_strE>
  406f4c:	be 00 10 00 00       	mov    esi,0x1000
  406f51:	4c 89 f7             	mov    rdi,r14
  406f54:	e8 b7 84 00 00       	call   40f410 <_ZN11__sanitizer19ReadLongProcessNameEPcm>
  406f59:	4c 89 f7             	mov    rdi,r14
  406f5c:	be 2f 00 00 00       	mov    esi,0x2f
  406f61:	e8 5a 5b 00 00       	call   40cac0 <_ZN11__sanitizer16internal_strrchrEPKci>
  406f66:	48 85 c0             	test   rax,rax
  406f69:	48 8d 58 01          	lea    rbx,[rax+0x1]
  406f6d:	49 0f 44 de          	cmove  rbx,r14
  406f71:	48 89 df             	mov    rdi,rbx
  406f74:	e8 57 5a 00 00       	call   40c9d0 <_ZN11__sanitizer15internal_strlenEPKc>
  406f79:	4c 39 f3             	cmp    rbx,r14
  406f7c:	74 b0                	je     406f2e <_ZN11__sanitizer15CacheBinaryNameEv+0xe>
  406f7e:	49 89 c7             	mov    r15,rax
  406f81:	4c 89 f7             	mov    rdi,r14
  406f84:	48 89 de             	mov    rsi,rbx
  406f87:	48 89 c2             	mov    rdx,rax
  406f8a:	e8 f1 53 00 00       	call   40c380 <_ZN11__sanitizer16internal_memmoveEPvPKvm>
  406f8f:	43 c6 04 37 00       	mov    BYTE PTR [r15+r14*1],0x0
  406f94:	5b                   	pop    rbx
  406f95:	41 5e                	pop    r14
  406f97:	41 5f                	pop    r15
  406f99:	c3                   	ret    
  406f9a:	66 0f 1f 44 00 00    	nop    WORD PTR [rax+rax*1+0x0]

0000000000406fa0 <_ZN11__sanitizer20ReadBinaryNameCachedEPcm>:
  406fa0:	41 57                	push   r15
  406fa2:	41 56                	push   r14
  406fa4:	41 55                	push   r13
  406fa6:	41 54                	push   r12
  406fa8:	53                   	push   rbx
  406fa9:	49 89 f4             	mov    r12,rsi
  406fac:	49 89 fe             	mov    r14,rdi
  406faf:	80 3d ca 95 0c 00 00 	cmp    BYTE PTR [rip+0xc95ca],0x0        # 4d0580 <_ZN11__sanitizerL21binary_name_cache_strE>
  406fb6:	75 61                	jne    407019 <_ZN11__sanitizer20ReadBinaryNameCachedEPcm+0x79>
  406fb8:	48 8d 3d c1 95 0c 00 	lea    rdi,[rip+0xc95c1]        # 4d0580 <_ZN11__sanitizerL21binary_name_cache_strE>
  406fbf:	be 00 10 00 00       	mov    esi,0x1000
  406fc4:	e8 c7 83 00 00       	call   40f390 <_ZN11__sanitizer14ReadBinaryNameEPcm>
  406fc9:	4c 8d 3d b0 85 0c 00 	lea    r15,[rip+0xc85b0]        # 4cf580 <_ZN11__sanitizerL22process_name_cache_strE>
  406fd0:	be 00 10 00 00       	mov    esi,0x1000
  406fd5:	4c 89 ff             	mov    rdi,r15
  406fd8:	e8 33 84 00 00       	call   40f410 <_ZN11__sanitizer19ReadLongProcessNameEPcm>
  406fdd:	4c 89 ff             	mov    rdi,r15
  406fe0:	be 2f 00 00 00       	mov    esi,0x2f
  406fe5:	e8 d6 5a 00 00       	call   40cac0 <_ZN11__sanitizer16internal_strrchrEPKci>
  406fea:	48 85 c0             	test   rax,rax
  406fed:	48 8d 58 01          	lea    rbx,[rax+0x1]
  406ff1:	49 0f 44 df          	cmove  rbx,r15
  406ff5:	48 89 df             	mov    rdi,rbx
  406ff8:	e8 d3 59 00 00       	call   40c9d0 <_ZN11__sanitizer15internal_strlenEPKc>
  406ffd:	4c 39 fb             	cmp    rbx,r15
  407000:	74 17                	je     407019 <_ZN11__sanitizer20ReadBinaryNameCachedEPcm+0x79>
  407002:	49 89 c5             	mov    r13,rax
  407005:	4c 89 ff             	mov    rdi,r15
  407008:	48 89 de             	mov    rsi,rbx
  40700b:	48 89 c2             	mov    rdx,rax
  40700e:	e8 6d 53 00 00       	call   40c380 <_ZN11__sanitizer16internal_memmoveEPvPKvm>
  407013:	43 c6 44 3d 00 00    	mov    BYTE PTR [r13+r15*1+0x0],0x0
  407019:	48 8d 3d 60 95 0c 00 	lea    rdi,[rip+0xc9560]        # 4d0580 <_ZN11__sanitizerL21binary_name_cache_strE>
  407020:	e8 ab 59 00 00       	call   40c9d0 <_ZN11__sanitizer15internal_strlenEPKc>
  407025:	49 8d 5c 24 ff       	lea    rbx,[r12-0x1]
  40702a:	48 39 d8             	cmp    rax,rbx
  40702d:	48 0f 42 d8          	cmovb  rbx,rax
  407031:	49 83 fc 01          	cmp    r12,0x1
  407035:	73 04                	jae    40703b <_ZN11__sanitizer20ReadBinaryNameCachedEPcm+0x9b>
  407037:	31 db                	xor    ebx,ebx
  407039:	eb 17                	jmp    407052 <_ZN11__sanitizer20ReadBinaryNameCachedEPcm+0xb2>
  40703b:	48 8d 35 3e 95 0c 00 	lea    rsi,[rip+0xc953e]        # 4d0580 <_ZN11__sanitizerL21binary_name_cache_strE>
  407042:	4c 89 f7             	mov    rdi,r14
  407045:	48 89 da             	mov    rdx,rbx
  407048:	e8 c3 51 00 00       	call   40c210 <_ZN11__sanitizer15internal_memcpyEPvPKvm>
  40704d:	41 c6 04 1e 00       	mov    BYTE PTR [r14+rbx*1],0x0
  407052:	48 89 d8             	mov    rax,rbx
  407055:	5b                   	pop    rbx
  407056:	41 5c                	pop    r12
  407058:	41 5d                	pop    r13
  40705a:	41 5e                	pop    r14
  40705c:	41 5f                	pop    r15
  40705e:	c3                   	ret    
  40705f:	90                   	nop

0000000000407060 <_ZN11__sanitizer12PrintCmdlineEv>:
  407060:	41 56                	push   r14
  407062:	53                   	push   rbx
  407063:	50                   	push   rax
  407064:	e8 17 78 00 00       	call   40e880 <_ZN11__sanitizer7GetArgvEv>
  407069:	48 85 c0             	test   rax,rax
  40706c:	74 5d                	je     4070cb <_ZN11__sanitizer12PrintCmdlineEv+0x6b>
  40706e:	48 89 c3             	mov    rbx,rax
  407071:	48 8d 3d 2a 1f 02 00 	lea    rdi,[rip+0x21f2a]        # 428fa2 <_IO_stdin_used+0xfa2>
  407078:	31 c0                	xor    eax,eax
  40707a:	e8 21 a4 00 00       	call   4114a0 <_ZN11__sanitizer6PrintfEPKcz>
  40707f:	48 8b 33             	mov    rsi,QWORD PTR [rbx]
  407082:	48 85 f6             	test   rsi,rsi
  407085:	74 2f                	je     4070b6 <_ZN11__sanitizer12PrintCmdlineEv+0x56>
  407087:	48 83 c3 08          	add    rbx,0x8
  40708b:	4c 8d 35 e8 85 02 00 	lea    r14,[rip+0x285e8]        # 42f67a <_ZN11__sanitizer16Addr2LineProcess18output_terminator_E+0x2ce>
  407092:	66 2e 0f 1f 84 00 00 	nop    WORD PTR cs:[rax+rax*1+0x0]
  407099:	00 00 00 
  40709c:	0f 1f 40 00          	nop    DWORD PTR [rax+0x0]
  4070a0:	4c 89 f7             	mov    rdi,r14
  4070a3:	31 c0                	xor    eax,eax
  4070a5:	e8 f6 a3 00 00       	call   4114a0 <_ZN11__sanitizer6PrintfEPKcz>
  4070aa:	48 8b 33             	mov    rsi,QWORD PTR [rbx]
  4070ad:	48 83 c3 08          	add    rbx,0x8
  4070b1:	48 85 f6             	test   rsi,rsi
  4070b4:	75 ea                	jne    4070a0 <_ZN11__sanitizer12PrintCmdlineEv+0x40>
  4070b6:	48 8d 3d 26 77 02 00 	lea    rdi,[rip+0x27726]        # 42e7e3 <_ZN8__sancov12_GLOBAL__N_15MagicE+0x6eb>
  4070bd:	31 c0                	xor    eax,eax
  4070bf:	48 83 c4 08          	add    rsp,0x8
  4070c3:	5b                   	pop    rbx
  4070c4:	41 5e                	pop    r14
  4070c6:	e9 d5 a3 00 00       	jmp    4114a0 <_ZN11__sanitizer6PrintfEPKcz>
  4070cb:	48 83 c4 08          	add    rsp,0x8
  4070cf:	5b                   	pop    rbx
  4070d0:	41 5e                	pop    r14
  4070d2:	c3                   	ret    
  4070d3:	66 2e 0f 1f 84 00 00 	nop    WORD PTR cs:[rax+rax*1+0x0]
  4070da:	00 00 00 
  4070dd:	0f 1f 00             	nop    DWORD PTR [rax]

00000000004070e0 <_ZN11__sanitizer14RunMallocHooksEPKvm>:
  4070e0:	41 56                	push   r14
  4070e2:	53                   	push   rbx
  4070e3:	50                   	push   rax
  4070e4:	48 8b 05 95 a4 0c 00 	mov    rax,QWORD PTR [rip+0xca495]        # 4d1580 <_ZN11__sanitizerL7MFHooksE>
  4070eb:	48 85 c0             	test   rax,rax
  4070ee:	74 5f                	je     40714f <_ZN11__sanitizer14RunMallocHooksEPKvm+0x6f>
  4070f0:	49 89 f6             	mov    r14,rsi
  4070f3:	48 89 fb             	mov    rbx,rdi
  4070f6:	ff d0                	call   rax
  4070f8:	48 8b 05 91 a4 0c 00 	mov    rax,QWORD PTR [rip+0xca491]        # 4d1590 <_ZN11__sanitizerL7MFHooksE+0x10>
  4070ff:	48 85 c0             	test   rax,rax
  407102:	74 4b                	je     40714f <_ZN11__sanitizer14RunMallocHooksEPKvm+0x6f>
  407104:	48 89 df             	mov    rdi,rbx
  407107:	4c 89 f6             	mov    rsi,r14
  40710a:	ff d0                	call   rax
  40710c:	48 8b 05 8d a4 0c 00 	mov    rax,QWORD PTR [rip+0xca48d]        # 4d15a0 <_ZN11__sanitizerL7MFHooksE+0x20>
  407113:	48 85 c0             	test   rax,rax
  407116:	74 37                	je     40714f <_ZN11__sanitizer14RunMallocHooksEPKvm+0x6f>
  407118:	48 89 df             	mov    rdi,rbx
  40711b:	4c 89 f6             	mov    rsi,r14
  40711e:	ff d0                	call   rax
  407120:	48 8b 05 89 a4 0c 00 	mov    rax,QWORD PTR [rip+0xca489]        # 4d15b0 <_ZN11__sanitizerL7MFHooksE+0x30>
  407127:	48 85 c0             	test   rax,rax
  40712a:	74 23                	je     40714f <_ZN11__sanitizer14RunMallocHooksEPKvm+0x6f>
  40712c:	48 89 df             	mov    rdi,rbx
  40712f:	4c 89 f6             	mov    rsi,r14
  407132:	ff d0                	call   rax
  407134:	48 8b 05 85 a4 0c 00 	mov    rax,QWORD PTR [rip+0xca485]        # 4d15c0 <_ZN11__sanitizerL7MFHooksE+0x40>
  40713b:	48 85 c0             	test   rax,rax
  40713e:	74 0f                	je     40714f <_ZN11__sanitizer14RunMallocHooksEPKvm+0x6f>
  407140:	48 89 df             	mov    rdi,rbx
  407143:	4c 89 f6             	mov    rsi,r14
  407146:	48 83 c4 08          	add    rsp,0x8
  40714a:	5b                   	pop    rbx
  40714b:	41 5e                	pop    r14
  40714d:	ff e0                	jmp    rax
  40714f:	48 83 c4 08          	add    rsp,0x8
  407153:	5b                   	pop    rbx
  407154:	41 5e                	pop    r14
  407156:	c3                   	ret    
  407157:	66 0f 1f 84 00 00 00 	nop    WORD PTR [rax+rax*1+0x0]
  40715e:	00 00 

0000000000407160 <_ZN11__sanitizer12RunFreeHooksEPKv>:
  407160:	53                   	push   rbx
  407161:	48 8b 05 20 a4 0c 00 	mov    rax,QWORD PTR [rip+0xca420]        # 4d1588 <_ZN11__sanitizerL7MFHooksE+0x8>
  407168:	48 85 c0             	test   rax,rax
  40716b:	74 4a                	je     4071b7 <_ZN11__sanitizer12RunFreeHooksEPKv+0x57>
  40716d:	48 89 fb             	mov    rbx,rdi
  407170:	ff d0                	call   rax
  407172:	48 8b 05 1f a4 0c 00 	mov    rax,QWORD PTR [rip+0xca41f]        # 4d1598 <_ZN11__sanitizerL7MFHooksE+0x18>
  407179:	48 85 c0             	test   rax,rax
  40717c:	74 39                	je     4071b7 <_ZN11__sanitizer12RunFreeHooksEPKv+0x57>
  40717e:	48 89 df             	mov    rdi,rbx
  407181:	ff d0                	call   rax
  407183:	48 8b 05 1e a4 0c 00 	mov    rax,QWORD PTR [rip+0xca41e]        # 4d15a8 <_ZN11__sanitizerL7MFHooksE+0x28>
  40718a:	48 85 c0             	test   rax,rax
  40718d:	74 28                	je     4071b7 <_ZN11__sanitizer12RunFreeHooksEPKv+0x57>
  40718f:	48 89 df             	mov    rdi,rbx
  407192:	ff d0                	call   rax
  407194:	48 8b 05 1d a4 0c 00 	mov    rax,QWORD PTR [rip+0xca41d]        # 4d15b8 <_ZN11__sanitizerL7MFHooksE+0x38>
  40719b:	48 85 c0             	test   rax,rax
  40719e:	74 17                	je     4071b7 <_ZN11__sanitizer12RunFreeHooksEPKv+0x57>
  4071a0:	48 89 df             	mov    rdi,rbx
  4071a3:	ff d0                	call   rax
  4071a5:	48 8b 05 1c a4 0c 00 	mov    rax,QWORD PTR [rip+0xca41c]        # 4d15c8 <_ZN11__sanitizerL7MFHooksE+0x48>
  4071ac:	48 85 c0             	test   rax,rax
  4071af:	74 06                	je     4071b7 <_ZN11__sanitizer12RunFreeHooksEPKv+0x57>
  4071b1:	48 89 df             	mov    rdi,rbx
  4071b4:	5b                   	pop    rbx
  4071b5:	ff e0                	jmp    rax
  4071b7:	5b                   	pop    rbx
  4071b8:	c3                   	ret    
  4071b9:	0f 1f 80 00 00 00 00 	nop    DWORD PTR [rax+0x0]

00000000004071c0 <__sanitizer_acquire_crash_state>:
  4071c0:	b1 01                	mov    cl,0x1
  4071c2:	86 0d 08 a4 0c 00    	xchg   BYTE PTR [rip+0xca408],cl        # 4d15d0 <_ZZ31__sanitizer_acquire_crash_stateE14in_crash_state>
  4071c8:	31 c0                	xor    eax,eax
  4071ca:	84 c9                	test   cl,cl
  4071cc:	0f 94 c0             	sete   al
  4071cf:	c3                   	ret    

00000000004071d0 <__sanitizer_install_malloc_and_free_hooks>:
  4071d0:	31 c0                	xor    eax,eax
  4071d2:	48 85 ff             	test   rdi,rdi
  4071d5:	74 40                	je     407217 <__sanitizer_install_malloc_and_free_hooks+0x47>
  4071d7:	48 85 f6             	test   rsi,rsi
  4071da:	74 3b                	je     407217 <__sanitizer_install_malloc_and_free_hooks+0x47>
  4071dc:	4c 8d 05 9d a3 0c 00 	lea    r8,[rip+0xca39d]        # 4d1580 <_ZN11__sanitizerL7MFHooksE>
  4071e3:	48 83 3d 95 a3 0c 00 	cmp    QWORD PTR [rip+0xca395],0x0        # 4d1580 <_ZN11__sanitizerL7MFHooksE>
  4071ea:	00 
  4071eb:	74 2b                	je     407218 <__sanitizer_install_malloc_and_free_hooks+0x48>
  4071ed:	48 83 3d 9b a3 0c 00 	cmp    QWORD PTR [rip+0xca39b],0x0        # 4d1590 <_ZN11__sanitizerL7MFHooksE+0x10>
  4071f4:	00 
  4071f5:	74 28                	je     40721f <__sanitizer_install_malloc_and_free_hooks+0x4f>
  4071f7:	48 83 3d a1 a3 0c 00 	cmp    QWORD PTR [rip+0xca3a1],0x0        # 4d15a0 <_ZN11__sanitizerL7MFHooksE+0x20>
  4071fe:	00 
  4071ff:	74 2c                	je     40722d <__sanitizer_install_malloc_and_free_hooks+0x5d>
  407201:	48 83 3d a7 a3 0c 00 	cmp    QWORD PTR [rip+0xca3a7],0x0        # 4d15b0 <_ZN11__sanitizerL7MFHooksE+0x30>
  407208:	00 
  407209:	74 30                	je     40723b <__sanitizer_install_malloc_and_free_hooks+0x6b>
  40720b:	31 c0                	xor    eax,eax
  40720d:	48 83 3d ab a3 0c 00 	cmp    QWORD PTR [rip+0xca3ab],0x0        # 4d15c0 <_ZN11__sanitizerL7MFHooksE+0x40>
  407214:	00 
  407215:	74 32                	je     407249 <__sanitizer_install_malloc_and_free_hooks+0x79>
  407217:	c3                   	ret    
  407218:	31 c0                	xor    eax,eax
  40721a:	4c 89 c2             	mov    rdx,r8
  40721d:	eb 36                	jmp    407255 <__sanitizer_install_malloc_and_free_hooks+0x85>
  40721f:	48 8d 15 6a a3 0c 00 	lea    rdx,[rip+0xca36a]        # 4d1590 <_ZN11__sanitizerL7MFHooksE+0x10>
  407226:	b8 01 00 00 00       	mov    eax,0x1
  40722b:	eb 28                	jmp    407255 <__sanitizer_install_malloc_and_free_hooks+0x85>
  40722d:	48 8d 15 6c a3 0c 00 	lea    rdx,[rip+0xca36c]        # 4d15a0 <_ZN11__sanitizerL7MFHooksE+0x20>
  407234:	b8 02 00 00 00       	mov    eax,0x2
  407239:	eb 1a                	jmp    407255 <__sanitizer_install_malloc_and_free_hooks+0x85>
  40723b:	48 8d 15 6e a3 0c 00 	lea    rdx,[rip+0xca36e]        # 4d15b0 <_ZN11__sanitizerL7MFHooksE+0x30>
  407242:	b8 03 00 00 00       	mov    eax,0x3
  407247:	eb 0c                	jmp    407255 <__sanitizer_install_malloc_and_free_hooks+0x85>
  407249:	48 8d 15 70 a3 0c 00 	lea    rdx,[rip+0xca370]        # 4d15c0 <_ZN11__sanitizerL7MFHooksE+0x40>
  407250:	b8 04 00 00 00       	mov    eax,0x4
  407255:	89 c1                	mov    ecx,eax
  407257:	48 89 3a             	mov    QWORD PTR [rdx],rdi
  40725a:	48 c1 e1 04          	shl    rcx,0x4
  40725e:	4a 89 74 01 08       	mov    QWORD PTR [rcx+r8*1+0x8],rsi
  407263:	83 c0 01             	add    eax,0x1
  407266:	c3                   	ret    
  407267:	66 0f 1f 84 00 00 00 	nop    WORD PTR [rax+rax*1+0x0]
  40726e:	00 00 

0000000000407270 <_ZN11__sanitizer24InternalMmapVectorNoCtorIcE7ReallocEm>:
  407270:	41 57                	push   r15
  407272:	41 56                	push   r14
  407274:	53                   	push   rbx
  407275:	48 85 f6             	test   rsi,rsi
  407278:	0f 84 85 00 00 00    	je     407303 <_ZN11__sanitizer24InternalMmapVectorNoCtorIcE7ReallocEm+0x93>
  40727e:	49 89 f7             	mov    r15,rsi
  407281:	49 89 fe             	mov    r14,rdi
  407284:	48 8b 4f 10          	mov    rcx,QWORD PTR [rdi+0x10]
  407288:	48 39 f1             	cmp    rcx,rsi
  40728b:	0f 87 8f 00 00 00    	ja     407320 <_ZN11__sanitizer24InternalMmapVectorNoCtorIcE7ReallocEm+0xb0>
  407291:	48 8b 1d b0 82 0c 00 	mov    rbx,QWORD PTR [rip+0xc82b0]        # 4cf548 <_ZN11__sanitizer14PageSizeCachedE>
  407298:	48 85 db             	test   rbx,rbx
  40729b:	75 0f                	jne    4072ac <_ZN11__sanitizer24InternalMmapVectorNoCtorIcE7ReallocEm+0x3c>
  40729d:	e8 de 80 00 00       	call   40f380 <_ZN11__sanitizer11GetPageSizeEv>
  4072a2:	48 89 c3             	mov    rbx,rax
  4072a5:	48 89 05 9c 82 0c 00 	mov    QWORD PTR [rip+0xc829c],rax        # 4cf548 <_ZN11__sanitizer14PageSizeCachedE>
  4072ac:	48 8d 43 ff          	lea    rax,[rbx-0x1]
  4072b0:	48 85 c3             	test   rbx,rax
  4072b3:	0f 85 82 00 00 00    	jne    40733b <_ZN11__sanitizer24InternalMmapVectorNoCtorIcE7ReallocEm+0xcb>
  4072b9:	49 8d 04 1f          	lea    rax,[r15+rbx*1]
  4072bd:	48 83 c0 ff          	add    rax,0xffffffffffffffff
  4072c1:	48 f7 db             	neg    rbx
  4072c4:	48 21 c3             	and    rbx,rax
  4072c7:	48 8d 35 16 1d 02 00 	lea    rsi,[rip+0x21d16]        # 428fe4 <_IO_stdin_used+0xfe4>
  4072ce:	48 89 df             	mov    rdi,rbx
  4072d1:	31 d2                	xor    edx,edx
  4072d3:	e8 38 8a 00 00       	call   40fd10 <_ZN11__sanitizer9MmapOrDieEmPKcb>
  4072d8:	49 89 c7             	mov    r15,rax
  4072db:	49 8b 36             	mov    rsi,QWORD PTR [r14]
  4072de:	49 8b 56 10          	mov    rdx,QWORD PTR [r14+0x10]
  4072e2:	48 89 c7             	mov    rdi,rax
  4072e5:	e8 26 4f 00 00       	call   40c210 <_ZN11__sanitizer15internal_memcpyEPvPKvm>
  4072ea:	49 8b 3e             	mov    rdi,QWORD PTR [r14]
  4072ed:	49 8b 76 08          	mov    rsi,QWORD PTR [r14+0x8]
  4072f1:	e8 5a 8b 00 00       	call   40fe50 <_ZN11__sanitizer10UnmapOrDieEPvm>
  4072f6:	4d 89 3e             	mov    QWORD PTR [r14],r15
  4072f9:	49 89 5e 08          	mov    QWORD PTR [r14+0x8],rbx
  4072fd:	5b                   	pop    rbx
  4072fe:	41 5e                	pop    r14
  407300:	41 5f                	pop    r15
  407302:	c3                   	ret    
